
bazel-out/k8-opt/bin/gcc_riscv_testsuite/rvv/autovec/vls-vlmax/libperm-7_rv64gcv.so:     file format elf64-littleriscv


Disassembly of section .text:

0000000000000a48 <deregister_tm_clones>:
     a48:	00009517          	auipc	a0,0x9
     a4c:	5c050513          	addi	a0,a0,1472 # a008 <completed.0>
     a50:	00009797          	auipc	a5,0x9
     a54:	5b878793          	addi	a5,a5,1464 # a008 <completed.0>
     a58:	00a78863          	beq	a5,a0,a68 <_PROCEDURE_LINKAGE_TABLE_+0x18>
     a5c:	00009797          	auipc	a5,0x9
     a60:	5847b783          	ld	a5,1412(a5) # 9fe0 <_ITM_deregisterTMCloneTable@Base>
     a64:	c391                	beqz	a5,a68 <_PROCEDURE_LINKAGE_TABLE_+0x18>
     a66:	8782                	jr	a5
     a68:	8082                	ret

0000000000000a6a <register_tm_clones>:
     a6a:	00009517          	auipc	a0,0x9
     a6e:	59e50513          	addi	a0,a0,1438 # a008 <completed.0>
     a72:	00009797          	auipc	a5,0x9
     a76:	59678793          	addi	a5,a5,1430 # a008 <completed.0>
     a7a:	8f89                	sub	a5,a5,a0
     a7c:	878d                	srai	a5,a5,0x3
     a7e:	03f7d593          	srli	a1,a5,0x3f
     a82:	95be                	add	a1,a1,a5
     a84:	8585                	srai	a1,a1,0x1
     a86:	c599                	beqz	a1,a94 <register_tm_clones+0x2a>
     a88:	00009797          	auipc	a5,0x9
     a8c:	5607b783          	ld	a5,1376(a5) # 9fe8 <_ITM_registerTMCloneTable@Base>
     a90:	c391                	beqz	a5,a94 <register_tm_clones+0x2a>
     a92:	8782                	jr	a5
     a94:	8082                	ret

0000000000000a96 <__do_global_dtors_aux>:
     a96:	00009797          	auipc	a5,0x9
     a9a:	5727c783          	lbu	a5,1394(a5) # a008 <completed.0>
     a9e:	e79d                	bnez	a5,acc <__do_global_dtors_aux+0x36>
     aa0:	1141                	addi	sp,sp,-16
     aa2:	e406                	sd	ra,8(sp)
     aa4:	00009797          	auipc	a5,0x9
     aa8:	5347b783          	ld	a5,1332(a5) # 9fd8 <__cxa_finalize@GLIBC_2.27>
     aac:	c791                	beqz	a5,ab8 <__do_global_dtors_aux+0x22>
     aae:	00009517          	auipc	a0,0x9
     ab2:	55253503          	ld	a0,1362(a0) # a000 <__dso_handle>
     ab6:	9782                	jalr	a5
     ab8:	f91ff0ef          	jal	a48 <deregister_tm_clones>
     abc:	60a2                	ld	ra,8(sp)
     abe:	4785                	li	a5,1
     ac0:	00009717          	auipc	a4,0x9
     ac4:	54f70423          	sb	a5,1352(a4) # a008 <completed.0>
     ac8:	0141                	addi	sp,sp,16
     aca:	8082                	ret
     acc:	8082                	ret

0000000000000ace <frame_dummy>:
     ace:	bf71                	j	a6a <register_tm_clones>

0000000000000ad0 <permute_vnx2qi>:
     ad0:	1141                	addi	sp,sp,-16
     ad2:	c4517057          	vsetivli	zero,2,e8,mf8,ta,mu
     ad6:	00c11623          	sh	a2,12(sp)
     ada:	007c                	addi	a5,sp,12
     adc:	02078087          	vle8.v	v1,(a5)
     ae0:	00a11623          	sh	a0,12(sp)
     ae4:	02078187          	vle8.v	v3,(a5)
     ae8:	00b11723          	sh	a1,14(sp)
     aec:	00e10793          	addi	a5,sp,14
     af0:	2611b0d7          	vand.vi	v1,v1,3
     af4:	32308157          	vrgather.vv	v2,v3,v1
     af8:	02078187          	vle8.v	v3,(a5)
     afc:	7a10b057          	vmsgtu.vi	v0,v1,1
     b00:	021f30d7          	vadd.vi	v1,v1,-2
     b04:	30308157          	vrgather.vv	v2,v3,v1,v0.t
     b08:	02068127          	vse8.v	v2,(a3)
     b0c:	0141                	addi	sp,sp,16
     b0e:	8082                	ret

0000000000000b10 <permute_vnx4qi>:
     b10:	1141                	addi	sp,sp,-16
     b12:	c4627057          	vsetivli	zero,4,e8,mf4,ta,mu
     b16:	c432                	sw	a2,8(sp)
     b18:	003c                	addi	a5,sp,8
     b1a:	02078087          	vle8.v	v1,(a5)
     b1e:	c42a                	sw	a0,8(sp)
     b20:	02078187          	vle8.v	v3,(a5)
     b24:	c62e                	sw	a1,12(sp)
     b26:	007c                	addi	a5,sp,12
     b28:	2613b0d7          	vand.vi	v1,v1,7
     b2c:	32308157          	vrgather.vv	v2,v3,v1
     b30:	02078187          	vle8.v	v3,(a5)
     b34:	7a11b057          	vmsgtu.vi	v0,v1,3
     b38:	021e30d7          	vadd.vi	v1,v1,-4
     b3c:	30308157          	vrgather.vv	v2,v3,v1,v0.t
     b40:	02068127          	vse8.v	v2,(a3)
     b44:	0141                	addi	sp,sp,16
     b46:	8082                	ret

0000000000000b48 <permute_vnx8qi>:
     b48:	1141                	addi	sp,sp,-16
     b4a:	c4747057          	vsetivli	zero,8,e8,mf2,ta,mu
     b4e:	e032                	sd	a2,0(sp)
     b50:	02010087          	vle8.v	v1,(sp)
     b54:	e02a                	sd	a0,0(sp)
     b56:	02010187          	vle8.v	v3,(sp)
     b5a:	e42e                	sd	a1,8(sp)
     b5c:	003c                	addi	a5,sp,8
     b5e:	2617b0d7          	vand.vi	v1,v1,15
     b62:	32308157          	vrgather.vv	v2,v3,v1
     b66:	02078187          	vle8.v	v3,(a5)
     b6a:	7a13b057          	vmsgtu.vi	v0,v1,7
     b6e:	021c30d7          	vadd.vi	v1,v1,-8
     b72:	30308157          	vrgather.vv	v2,v3,v1,v0.t
     b76:	02068127          	vse8.v	v2,(a3)
     b7a:	0141                	addi	sp,sp,16
     b7c:	8082                	ret

0000000000000b7e <permute_vnx16qi>:
     b7e:	1141                	addi	sp,sp,-16
     b80:	c4087057          	vsetivli	zero,16,e8,m1,ta,mu
     b84:	e03a                	sd	a4,0(sp)
     b86:	e43e                	sd	a5,8(sp)
     b88:	02010107          	vle8.v	v2,(sp)
     b8c:	48fd                	li	a7,31
     b8e:	e02a                	sd	a0,0(sp)
     b90:	e42e                	sd	a1,8(sp)
     b92:	02010187          	vle8.v	v3,(sp)
     b96:	5e08c0d7          	vmv.v.x	v1,a7
     b9a:	e032                	sd	a2,0(sp)
     b9c:	e436                	sd	a3,8(sp)
     b9e:	261100d7          	vand.vv	v1,v1,v2
     ba2:	32308157          	vrgather.vv	v2,v3,v1
     ba6:	02010187          	vle8.v	v3,(sp)
     baa:	7a17b057          	vmsgtu.vi	v0,v1,15
     bae:	021830d7          	vadd.vi	v1,v1,-16
     bb2:	30308157          	vrgather.vv	v2,v3,v1,v0.t
     bb6:	02080127          	vse8.v	v2,(a6)
     bba:	0141                	addi	sp,sp,16
     bbc:	8082                	ret

0000000000000bbe <permute_vnx32qi>:
     bbe:	7151                	addi	sp,sp,-240
     bc0:	f5a2                	sd	s0,232(sp)
     bc2:	f1a6                	sd	s1,224(sp)
     bc4:	edca                	sd	s2,216(sp)
     bc6:	e9ce                	sd	s3,208(sp)
     bc8:	e5d2                	sd	s4,200(sp)
     bca:	e1d6                	sd	s5,192(sp)
     bcc:	fd5a                	sd	s6,184(sp)
     bce:	f95e                	sd	s7,176(sp)
     bd0:	f562                	sd	s8,168(sp)
     bd2:	f166                	sd	s9,160(sp)
     bd4:	ed6a                	sd	s10,152(sp)
     bd6:	e96e                	sd	s11,144(sp)
     bd8:	cdb27057          	vsetivli	zero,4,e64,m8,ta,ma
     bdc:	02057807          	vle64.v	v16,(a0)
     be0:	089c                	addi	a5,sp,80
     be2:	0205f407          	vle64.v	v8,(a1)
     be6:	0888                	addi	a0,sp,80
     be8:	0207f827          	vse64.v	v16,(a5)
     bec:	00060783          	lb	a5,0(a2)
     bf0:	00160703          	lb	a4,1(a2)
     bf4:	01f7f593          	andi	a1,a5,31
     bf8:	04058593          	addi	a1,a1,64
     bfc:	95aa                	add	a1,a1,a0
     bfe:	fc058503          	lb	a0,-64(a1)
     c02:	e4aa                	sd	a0,72(sp)
     c04:	1888                	addi	a0,sp,112
     c06:	02057427          	vse64.v	v8,(a0)
     c0a:	00575513          	srli	a0,a4,0x5
     c0e:	8905                	andi	a0,a0,1
     c10:	8b7d                	andi	a4,a4,31
     c12:	04070713          	addi	a4,a4,64
     c16:	4c051d63          	bnez	a0,10f0 <permute_vnx32qi+0x532>
     c1a:	970a                	add	a4,a4,sp
     c1c:	01074d03          	lbu	s10,16(a4)
     c20:	00260703          	lb	a4,2(a2)
     c24:	018d1d1b          	slliw	s10,s10,0x18
     c28:	00575513          	srli	a0,a4,0x5
     c2c:	8905                	andi	a0,a0,1
     c2e:	8b7d                	andi	a4,a4,31
     c30:	418d5d1b          	sraiw	s10,s10,0x18
     c34:	04070713          	addi	a4,a4,64
     c38:	4c051d63          	bnez	a0,1112 <permute_vnx32qi+0x554>
     c3c:	970a                	add	a4,a4,sp
     c3e:	01074c83          	lbu	s9,16(a4)
     c42:	00360703          	lb	a4,3(a2)
     c46:	018c9c9b          	slliw	s9,s9,0x18
     c4a:	00575513          	srli	a0,a4,0x5
     c4e:	8905                	andi	a0,a0,1
     c50:	8b7d                	andi	a4,a4,31
     c52:	418cdc9b          	sraiw	s9,s9,0x18
     c56:	04070713          	addi	a4,a4,64
     c5a:	4c051d63          	bnez	a0,1134 <permute_vnx32qi+0x576>
     c5e:	970a                	add	a4,a4,sp
     c60:	01074c03          	lbu	s8,16(a4)
     c64:	00460703          	lb	a4,4(a2)
     c68:	018c1c1b          	slliw	s8,s8,0x18
     c6c:	00575513          	srli	a0,a4,0x5
     c70:	8905                	andi	a0,a0,1
     c72:	8b7d                	andi	a4,a4,31
     c74:	418c5c1b          	sraiw	s8,s8,0x18
     c78:	04070713          	addi	a4,a4,64
     c7c:	4c051d63          	bnez	a0,1156 <permute_vnx32qi+0x598>
     c80:	970a                	add	a4,a4,sp
     c82:	01074b83          	lbu	s7,16(a4)
     c86:	00560703          	lb	a4,5(a2)
     c8a:	018b9b9b          	slliw	s7,s7,0x18
     c8e:	00575513          	srli	a0,a4,0x5
     c92:	8905                	andi	a0,a0,1
     c94:	8b7d                	andi	a4,a4,31
     c96:	418bdb9b          	sraiw	s7,s7,0x18
     c9a:	04070713          	addi	a4,a4,64
     c9e:	4c051d63          	bnez	a0,1178 <permute_vnx32qi+0x5ba>
     ca2:	970a                	add	a4,a4,sp
     ca4:	01074b03          	lbu	s6,16(a4)
     ca8:	00660703          	lb	a4,6(a2)
     cac:	018b1b1b          	slliw	s6,s6,0x18
     cb0:	00575513          	srli	a0,a4,0x5
     cb4:	8905                	andi	a0,a0,1
     cb6:	8b7d                	andi	a4,a4,31
     cb8:	418b5b1b          	sraiw	s6,s6,0x18
     cbc:	04070713          	addi	a4,a4,64
     cc0:	4c051d63          	bnez	a0,119a <permute_vnx32qi+0x5dc>
     cc4:	970a                	add	a4,a4,sp
     cc6:	01074a83          	lbu	s5,16(a4)
     cca:	00760703          	lb	a4,7(a2)
     cce:	018a9a9b          	slliw	s5,s5,0x18
     cd2:	00575513          	srli	a0,a4,0x5
     cd6:	8905                	andi	a0,a0,1
     cd8:	8b7d                	andi	a4,a4,31
     cda:	418ada9b          	sraiw	s5,s5,0x18
     cde:	04070713          	addi	a4,a4,64
     ce2:	4c051d63          	bnez	a0,11bc <permute_vnx32qi+0x5fe>
     ce6:	970a                	add	a4,a4,sp
     ce8:	01074a03          	lbu	s4,16(a4)
     cec:	00860703          	lb	a4,8(a2)
     cf0:	018a1a1b          	slliw	s4,s4,0x18
     cf4:	00575513          	srli	a0,a4,0x5
     cf8:	8905                	andi	a0,a0,1
     cfa:	8b7d                	andi	a4,a4,31
     cfc:	418a5a1b          	sraiw	s4,s4,0x18
     d00:	04070713          	addi	a4,a4,64
     d04:	4c051d63          	bnez	a0,11de <permute_vnx32qi+0x620>
     d08:	970a                	add	a4,a4,sp
     d0a:	01074983          	lbu	s3,16(a4)
     d0e:	00960703          	lb	a4,9(a2)
     d12:	0189999b          	slliw	s3,s3,0x18
     d16:	00575513          	srli	a0,a4,0x5
     d1a:	8905                	andi	a0,a0,1
     d1c:	8b7d                	andi	a4,a4,31
     d1e:	4189d99b          	sraiw	s3,s3,0x18
     d22:	04070713          	addi	a4,a4,64
     d26:	4c051d63          	bnez	a0,1200 <permute_vnx32qi+0x642>
     d2a:	970a                	add	a4,a4,sp
     d2c:	01074903          	lbu	s2,16(a4)
     d30:	00a60703          	lb	a4,10(a2)
     d34:	0189191b          	slliw	s2,s2,0x18
     d38:	00575513          	srli	a0,a4,0x5
     d3c:	8905                	andi	a0,a0,1
     d3e:	8b7d                	andi	a4,a4,31
     d40:	4189591b          	sraiw	s2,s2,0x18
     d44:	04070713          	addi	a4,a4,64
     d48:	4c051d63          	bnez	a0,1222 <permute_vnx32qi+0x664>
     d4c:	970a                	add	a4,a4,sp
     d4e:	01074483          	lbu	s1,16(a4)
     d52:	00b60703          	lb	a4,11(a2)
     d56:	0184949b          	slliw	s1,s1,0x18
     d5a:	00575513          	srli	a0,a4,0x5
     d5e:	8905                	andi	a0,a0,1
     d60:	8b7d                	andi	a4,a4,31
     d62:	4184d49b          	sraiw	s1,s1,0x18
     d66:	04070713          	addi	a4,a4,64
     d6a:	4c051d63          	bnez	a0,1244 <permute_vnx32qi+0x686>
     d6e:	970a                	add	a4,a4,sp
     d70:	01074403          	lbu	s0,16(a4)
     d74:	00c60703          	lb	a4,12(a2)
     d78:	0184141b          	slliw	s0,s0,0x18
     d7c:	00575513          	srli	a0,a4,0x5
     d80:	8905                	andi	a0,a0,1
     d82:	8b7d                	andi	a4,a4,31
     d84:	4184541b          	sraiw	s0,s0,0x18
     d88:	04070713          	addi	a4,a4,64
     d8c:	4c051d63          	bnez	a0,1266 <permute_vnx32qi+0x6a8>
     d90:	970a                	add	a4,a4,sp
     d92:	01074383          	lbu	t2,16(a4)
     d96:	00d60703          	lb	a4,13(a2)
     d9a:	0183939b          	slliw	t2,t2,0x18
     d9e:	00575513          	srli	a0,a4,0x5
     da2:	8905                	andi	a0,a0,1
     da4:	8b7d                	andi	a4,a4,31
     da6:	4183d39b          	sraiw	t2,t2,0x18
     daa:	04070713          	addi	a4,a4,64
     dae:	4c051d63          	bnez	a0,1288 <permute_vnx32qi+0x6ca>
     db2:	970a                	add	a4,a4,sp
     db4:	01074283          	lbu	t0,16(a4)
     db8:	00e60703          	lb	a4,14(a2)
     dbc:	0182929b          	slliw	t0,t0,0x18
     dc0:	00575513          	srli	a0,a4,0x5
     dc4:	8905                	andi	a0,a0,1
     dc6:	8b7d                	andi	a4,a4,31
     dc8:	4182d29b          	sraiw	t0,t0,0x18
     dcc:	04070713          	addi	a4,a4,64
     dd0:	4c051d63          	bnez	a0,12aa <permute_vnx32qi+0x6ec>
     dd4:	970a                	add	a4,a4,sp
     dd6:	01074503          	lbu	a0,16(a4)
     dda:	00f60703          	lb	a4,15(a2)
     dde:	0185151b          	slliw	a0,a0,0x18
     de2:	4185551b          	sraiw	a0,a0,0x18
     de6:	e42a                	sd	a0,8(sp)
     de8:	00575513          	srli	a0,a4,0x5
     dec:	8905                	andi	a0,a0,1
     dee:	8b7d                	andi	a4,a4,31
     df0:	04070713          	addi	a4,a4,64
     df4:	54051263          	bnez	a0,1338 <permute_vnx32qi+0x77a>
     df8:	970a                	add	a4,a4,sp
     dfa:	01074503          	lbu	a0,16(a4)
     dfe:	01060703          	lb	a4,16(a2)
     e02:	0185151b          	slliw	a0,a0,0x18
     e06:	4185551b          	sraiw	a0,a0,0x18
     e0a:	e82a                	sd	a0,16(sp)
     e0c:	00575513          	srli	a0,a4,0x5
     e10:	8905                	andi	a0,a0,1
     e12:	8b7d                	andi	a4,a4,31
     e14:	04070713          	addi	a4,a4,64
     e18:	50051c63          	bnez	a0,1330 <permute_vnx32qi+0x772>
     e1c:	970a                	add	a4,a4,sp
     e1e:	01074503          	lbu	a0,16(a4)
     e22:	01160703          	lb	a4,17(a2)
     e26:	0185151b          	slliw	a0,a0,0x18
     e2a:	4185551b          	sraiw	a0,a0,0x18
     e2e:	ec2a                	sd	a0,24(sp)
     e30:	00575513          	srli	a0,a4,0x5
     e34:	8905                	andi	a0,a0,1
     e36:	8b7d                	andi	a4,a4,31
     e38:	04070713          	addi	a4,a4,64
     e3c:	4e051663          	bnez	a0,1328 <permute_vnx32qi+0x76a>
     e40:	970a                	add	a4,a4,sp
     e42:	01074503          	lbu	a0,16(a4)
     e46:	01260703          	lb	a4,18(a2)
     e4a:	0185151b          	slliw	a0,a0,0x18
     e4e:	4185551b          	sraiw	a0,a0,0x18
     e52:	f02a                	sd	a0,32(sp)
     e54:	00575513          	srli	a0,a4,0x5
     e58:	8905                	andi	a0,a0,1
     e5a:	8b7d                	andi	a4,a4,31
     e5c:	04070713          	addi	a4,a4,64
     e60:	4c051063          	bnez	a0,1320 <permute_vnx32qi+0x762>
     e64:	970a                	add	a4,a4,sp
     e66:	01074503          	lbu	a0,16(a4)
     e6a:	01360703          	lb	a4,19(a2)
     e6e:	0185151b          	slliw	a0,a0,0x18
     e72:	4185551b          	sraiw	a0,a0,0x18
     e76:	f42a                	sd	a0,40(sp)
     e78:	00575513          	srli	a0,a4,0x5
     e7c:	8905                	andi	a0,a0,1
     e7e:	8b7d                	andi	a4,a4,31
     e80:	04070713          	addi	a4,a4,64
     e84:	48051a63          	bnez	a0,1318 <permute_vnx32qi+0x75a>
     e88:	970a                	add	a4,a4,sp
     e8a:	01074503          	lbu	a0,16(a4)
     e8e:	01460703          	lb	a4,20(a2)
     e92:	0185151b          	slliw	a0,a0,0x18
     e96:	4185551b          	sraiw	a0,a0,0x18
     e9a:	f82a                	sd	a0,48(sp)
     e9c:	00575513          	srli	a0,a4,0x5
     ea0:	8905                	andi	a0,a0,1
     ea2:	8b7d                	andi	a4,a4,31
     ea4:	04070713          	addi	a4,a4,64
     ea8:	46051463          	bnez	a0,1310 <permute_vnx32qi+0x752>
     eac:	970a                	add	a4,a4,sp
     eae:	01074503          	lbu	a0,16(a4)
     eb2:	01560703          	lb	a4,21(a2)
     eb6:	0185151b          	slliw	a0,a0,0x18
     eba:	4185551b          	sraiw	a0,a0,0x18
     ebe:	fc2a                	sd	a0,56(sp)
     ec0:	00575513          	srli	a0,a4,0x5
     ec4:	8905                	andi	a0,a0,1
     ec6:	8b7d                	andi	a4,a4,31
     ec8:	04070713          	addi	a4,a4,64
     ecc:	42051e63          	bnez	a0,1308 <permute_vnx32qi+0x74a>
     ed0:	970a                	add	a4,a4,sp
     ed2:	01074503          	lbu	a0,16(a4)
     ed6:	01660703          	lb	a4,22(a2)
     eda:	0185151b          	slliw	a0,a0,0x18
     ede:	4185551b          	sraiw	a0,a0,0x18
     ee2:	e0aa                	sd	a0,64(sp)
     ee4:	00575513          	srli	a0,a4,0x5
     ee8:	8905                	andi	a0,a0,1
     eea:	8b7d                	andi	a4,a4,31
     eec:	04070713          	addi	a4,a4,64
     ef0:	40051863          	bnez	a0,1300 <permute_vnx32qi+0x742>
     ef4:	970a                	add	a4,a4,sp
     ef6:	01074f83          	lbu	t6,16(a4)
     efa:	01760703          	lb	a4,23(a2)
     efe:	018f9f9b          	slliw	t6,t6,0x18
     f02:	418fdf9b          	sraiw	t6,t6,0x18
     f06:	00575513          	srli	a0,a4,0x5
     f0a:	8905                	andi	a0,a0,1
     f0c:	8b7d                	andi	a4,a4,31
     f0e:	04070713          	addi	a4,a4,64
     f12:	3e051363          	bnez	a0,12f8 <permute_vnx32qi+0x73a>
     f16:	970a                	add	a4,a4,sp
     f18:	01074f03          	lbu	t5,16(a4)
     f1c:	01860703          	lb	a4,24(a2)
     f20:	018f1f1b          	slliw	t5,t5,0x18
     f24:	418f5f1b          	sraiw	t5,t5,0x18
     f28:	00575513          	srli	a0,a4,0x5
     f2c:	8905                	andi	a0,a0,1
     f2e:	8b7d                	andi	a4,a4,31
     f30:	04070713          	addi	a4,a4,64
     f34:	3a051e63          	bnez	a0,12f0 <permute_vnx32qi+0x732>
     f38:	970a                	add	a4,a4,sp
     f3a:	01074e83          	lbu	t4,16(a4)
     f3e:	01960703          	lb	a4,25(a2)
     f42:	018e9e9b          	slliw	t4,t4,0x18
     f46:	418ede9b          	sraiw	t4,t4,0x18
     f4a:	00575513          	srli	a0,a4,0x5
     f4e:	8905                	andi	a0,a0,1
     f50:	8b7d                	andi	a4,a4,31
     f52:	04070713          	addi	a4,a4,64
     f56:	38051963          	bnez	a0,12e8 <permute_vnx32qi+0x72a>
     f5a:	970a                	add	a4,a4,sp
     f5c:	01074e03          	lbu	t3,16(a4)
     f60:	01a60703          	lb	a4,26(a2)
     f64:	018e1e1b          	slliw	t3,t3,0x18
     f68:	418e5e1b          	sraiw	t3,t3,0x18
     f6c:	00575513          	srli	a0,a4,0x5
     f70:	8905                	andi	a0,a0,1
     f72:	8b7d                	andi	a4,a4,31
     f74:	04070713          	addi	a4,a4,64
     f78:	36051463          	bnez	a0,12e0 <permute_vnx32qi+0x722>
     f7c:	970a                	add	a4,a4,sp
     f7e:	01074303          	lbu	t1,16(a4)
     f82:	01b60703          	lb	a4,27(a2)
     f86:	0183131b          	slliw	t1,t1,0x18
     f8a:	4183531b          	sraiw	t1,t1,0x18
     f8e:	00575513          	srli	a0,a4,0x5
     f92:	8905                	andi	a0,a0,1
     f94:	8b7d                	andi	a4,a4,31
     f96:	04070713          	addi	a4,a4,64
     f9a:	32051f63          	bnez	a0,12d8 <permute_vnx32qi+0x71a>
     f9e:	970a                	add	a4,a4,sp
     fa0:	01074883          	lbu	a7,16(a4)
     fa4:	01c60703          	lb	a4,28(a2)
     fa8:	0188989b          	slliw	a7,a7,0x18
     fac:	4188d89b          	sraiw	a7,a7,0x18
     fb0:	00575513          	srli	a0,a4,0x5
     fb4:	8905                	andi	a0,a0,1
     fb6:	8b7d                	andi	a4,a4,31
     fb8:	04070713          	addi	a4,a4,64
     fbc:	30051a63          	bnez	a0,12d0 <permute_vnx32qi+0x712>
     fc0:	970a                	add	a4,a4,sp
     fc2:	01074803          	lbu	a6,16(a4)
     fc6:	01d60703          	lb	a4,29(a2)
     fca:	0188181b          	slliw	a6,a6,0x18
     fce:	4188581b          	sraiw	a6,a6,0x18
     fd2:	00575513          	srli	a0,a4,0x5
     fd6:	8905                	andi	a0,a0,1
     fd8:	8b7d                	andi	a4,a4,31
     fda:	04070713          	addi	a4,a4,64
     fde:	2e051563          	bnez	a0,12c8 <permute_vnx32qi+0x70a>
     fe2:	970a                	add	a4,a4,sp
     fe4:	01074503          	lbu	a0,16(a4)
     fe8:	01e60703          	lb	a4,30(a2)
     fec:	0185151b          	slliw	a0,a0,0x18
     ff0:	4185551b          	sraiw	a0,a0,0x18
     ff4:	00575d93          	srli	s11,a4,0x5
     ff8:	001dfd93          	andi	s11,s11,1
     ffc:	8b7d                	andi	a4,a4,31
     ffe:	04070713          	addi	a4,a4,64
    1002:	2a0d9f63          	bnez	s11,12c0 <permute_vnx32qi+0x702>
    1006:	970a                	add	a4,a4,sp
    1008:	01074d83          	lbu	s11,16(a4)
    100c:	01f60703          	lb	a4,31(a2)
    1010:	018d961b          	slliw	a2,s11,0x18
    1014:	4186561b          	sraiw	a2,a2,0x18
    1018:	00575d93          	srli	s11,a4,0x5
    101c:	001dfd93          	andi	s11,s11,1
    1020:	8b7d                	andi	a4,a4,31
    1022:	04070713          	addi	a4,a4,64
    1026:	280d9963          	bnez	s11,12b8 <permute_vnx32qi+0x6fa>
    102a:	970a                	add	a4,a4,sp
    102c:	01074703          	lbu	a4,16(a4)
    1030:	8395                	srli	a5,a5,0x5
    1032:	0187171b          	slliw	a4,a4,0x18
    1036:	8b85                	andi	a5,a5,1
    1038:	4187571b          	sraiw	a4,a4,0x18
    103c:	26079b63          	bnez	a5,12b2 <permute_vnx32qi+0x6f4>
    1040:	04814783          	lbu	a5,72(sp)
    1044:	00f68023          	sb	a5,0(a3)
    1048:	67a2                	ld	a5,8(sp)
    104a:	01a680a3          	sb	s10,1(a3)
    104e:	01968123          	sb	s9,2(a3)
    1052:	00f68723          	sb	a5,14(a3)
    1056:	67c2                	ld	a5,16(sp)
    1058:	018681a3          	sb	s8,3(a3)
    105c:	01768223          	sb	s7,4(a3)
    1060:	00f687a3          	sb	a5,15(a3)
    1064:	67e2                	ld	a5,24(sp)
    1066:	016682a3          	sb	s6,5(a3)
    106a:	01568323          	sb	s5,6(a3)
    106e:	00f68823          	sb	a5,16(a3)
    1072:	7782                	ld	a5,32(sp)
    1074:	014683a3          	sb	s4,7(a3)
    1078:	01368423          	sb	s3,8(a3)
    107c:	00f688a3          	sb	a5,17(a3)
    1080:	77a2                	ld	a5,40(sp)
    1082:	012684a3          	sb	s2,9(a3)
    1086:	00968523          	sb	s1,10(a3)
    108a:	00f68923          	sb	a5,18(a3)
    108e:	77c2                	ld	a5,48(sp)
    1090:	008685a3          	sb	s0,11(a3)
    1094:	00768623          	sb	t2,12(a3)
    1098:	00f689a3          	sb	a5,19(a3)
    109c:	77e2                	ld	a5,56(sp)
    109e:	005686a3          	sb	t0,13(a3)
    10a2:	01f68b23          	sb	t6,22(a3)
    10a6:	00f68a23          	sb	a5,20(a3)
    10aa:	6786                	ld	a5,64(sp)
    10ac:	01e68ba3          	sb	t5,23(a3)
    10b0:	00f68aa3          	sb	a5,21(a3)
    10b4:	01d68c23          	sb	t4,24(a3)
    10b8:	742e                	ld	s0,232(sp)
    10ba:	01c68ca3          	sb	t3,25(a3)
    10be:	00668d23          	sb	t1,26(a3)
    10c2:	01168da3          	sb	a7,27(a3)
    10c6:	01068e23          	sb	a6,28(a3)
    10ca:	00a68ea3          	sb	a0,29(a3)
    10ce:	00c68f23          	sb	a2,30(a3)
    10d2:	00e68fa3          	sb	a4,31(a3)
    10d6:	748e                	ld	s1,224(sp)
    10d8:	696e                	ld	s2,216(sp)
    10da:	69ce                	ld	s3,208(sp)
    10dc:	6a2e                	ld	s4,200(sp)
    10de:	6a8e                	ld	s5,192(sp)
    10e0:	7b6a                	ld	s6,184(sp)
    10e2:	7bca                	ld	s7,176(sp)
    10e4:	7c2a                	ld	s8,168(sp)
    10e6:	7c8a                	ld	s9,160(sp)
    10e8:	6d6a                	ld	s10,152(sp)
    10ea:	6dca                	ld	s11,144(sp)
    10ec:	616d                	addi	sp,sp,240
    10ee:	8082                	ret
    10f0:	970a                	add	a4,a4,sp
    10f2:	03074d03          	lbu	s10,48(a4)
    10f6:	00260703          	lb	a4,2(a2)
    10fa:	018d1d1b          	slliw	s10,s10,0x18
    10fe:	00575513          	srli	a0,a4,0x5
    1102:	8905                	andi	a0,a0,1
    1104:	8b7d                	andi	a4,a4,31
    1106:	418d5d1b          	sraiw	s10,s10,0x18
    110a:	04070713          	addi	a4,a4,64
    110e:	b20507e3          	beqz	a0,c3c <permute_vnx32qi+0x7e>
    1112:	970a                	add	a4,a4,sp
    1114:	03074c83          	lbu	s9,48(a4)
    1118:	00360703          	lb	a4,3(a2)
    111c:	018c9c9b          	slliw	s9,s9,0x18
    1120:	00575513          	srli	a0,a4,0x5
    1124:	8905                	andi	a0,a0,1
    1126:	8b7d                	andi	a4,a4,31
    1128:	418cdc9b          	sraiw	s9,s9,0x18
    112c:	04070713          	addi	a4,a4,64
    1130:	b20507e3          	beqz	a0,c5e <permute_vnx32qi+0xa0>
    1134:	970a                	add	a4,a4,sp
    1136:	03074c03          	lbu	s8,48(a4)
    113a:	00460703          	lb	a4,4(a2)
    113e:	018c1c1b          	slliw	s8,s8,0x18
    1142:	00575513          	srli	a0,a4,0x5
    1146:	8905                	andi	a0,a0,1
    1148:	8b7d                	andi	a4,a4,31
    114a:	418c5c1b          	sraiw	s8,s8,0x18
    114e:	04070713          	addi	a4,a4,64
    1152:	b20507e3          	beqz	a0,c80 <permute_vnx32qi+0xc2>
    1156:	970a                	add	a4,a4,sp
    1158:	03074b83          	lbu	s7,48(a4)
    115c:	00560703          	lb	a4,5(a2)
    1160:	018b9b9b          	slliw	s7,s7,0x18
    1164:	00575513          	srli	a0,a4,0x5
    1168:	8905                	andi	a0,a0,1
    116a:	8b7d                	andi	a4,a4,31
    116c:	418bdb9b          	sraiw	s7,s7,0x18
    1170:	04070713          	addi	a4,a4,64
    1174:	b20507e3          	beqz	a0,ca2 <permute_vnx32qi+0xe4>
    1178:	970a                	add	a4,a4,sp
    117a:	03074b03          	lbu	s6,48(a4)
    117e:	00660703          	lb	a4,6(a2)
    1182:	018b1b1b          	slliw	s6,s6,0x18
    1186:	00575513          	srli	a0,a4,0x5
    118a:	8905                	andi	a0,a0,1
    118c:	8b7d                	andi	a4,a4,31
    118e:	418b5b1b          	sraiw	s6,s6,0x18
    1192:	04070713          	addi	a4,a4,64
    1196:	b20507e3          	beqz	a0,cc4 <permute_vnx32qi+0x106>
    119a:	970a                	add	a4,a4,sp
    119c:	03074a83          	lbu	s5,48(a4)
    11a0:	00760703          	lb	a4,7(a2)
    11a4:	018a9a9b          	slliw	s5,s5,0x18
    11a8:	00575513          	srli	a0,a4,0x5
    11ac:	8905                	andi	a0,a0,1
    11ae:	8b7d                	andi	a4,a4,31
    11b0:	418ada9b          	sraiw	s5,s5,0x18
    11b4:	04070713          	addi	a4,a4,64
    11b8:	b20507e3          	beqz	a0,ce6 <permute_vnx32qi+0x128>
    11bc:	970a                	add	a4,a4,sp
    11be:	03074a03          	lbu	s4,48(a4)
    11c2:	00860703          	lb	a4,8(a2)
    11c6:	018a1a1b          	slliw	s4,s4,0x18
    11ca:	00575513          	srli	a0,a4,0x5
    11ce:	8905                	andi	a0,a0,1
    11d0:	8b7d                	andi	a4,a4,31
    11d2:	418a5a1b          	sraiw	s4,s4,0x18
    11d6:	04070713          	addi	a4,a4,64
    11da:	b20507e3          	beqz	a0,d08 <permute_vnx32qi+0x14a>
    11de:	970a                	add	a4,a4,sp
    11e0:	03074983          	lbu	s3,48(a4)
    11e4:	00960703          	lb	a4,9(a2)
    11e8:	0189999b          	slliw	s3,s3,0x18
    11ec:	00575513          	srli	a0,a4,0x5
    11f0:	8905                	andi	a0,a0,1
    11f2:	8b7d                	andi	a4,a4,31
    11f4:	4189d99b          	sraiw	s3,s3,0x18
    11f8:	04070713          	addi	a4,a4,64
    11fc:	b20507e3          	beqz	a0,d2a <permute_vnx32qi+0x16c>
    1200:	970a                	add	a4,a4,sp
    1202:	03074903          	lbu	s2,48(a4)
    1206:	00a60703          	lb	a4,10(a2)
    120a:	0189191b          	slliw	s2,s2,0x18
    120e:	00575513          	srli	a0,a4,0x5
    1212:	8905                	andi	a0,a0,1
    1214:	8b7d                	andi	a4,a4,31
    1216:	4189591b          	sraiw	s2,s2,0x18
    121a:	04070713          	addi	a4,a4,64
    121e:	b20507e3          	beqz	a0,d4c <permute_vnx32qi+0x18e>
    1222:	970a                	add	a4,a4,sp
    1224:	03074483          	lbu	s1,48(a4)
    1228:	00b60703          	lb	a4,11(a2)
    122c:	0184949b          	slliw	s1,s1,0x18
    1230:	00575513          	srli	a0,a4,0x5
    1234:	8905                	andi	a0,a0,1
    1236:	8b7d                	andi	a4,a4,31
    1238:	4184d49b          	sraiw	s1,s1,0x18
    123c:	04070713          	addi	a4,a4,64
    1240:	b20507e3          	beqz	a0,d6e <permute_vnx32qi+0x1b0>
    1244:	970a                	add	a4,a4,sp
    1246:	03074403          	lbu	s0,48(a4)
    124a:	00c60703          	lb	a4,12(a2)
    124e:	0184141b          	slliw	s0,s0,0x18
    1252:	00575513          	srli	a0,a4,0x5
    1256:	8905                	andi	a0,a0,1
    1258:	8b7d                	andi	a4,a4,31
    125a:	4184541b          	sraiw	s0,s0,0x18
    125e:	04070713          	addi	a4,a4,64
    1262:	b20507e3          	beqz	a0,d90 <permute_vnx32qi+0x1d2>
    1266:	970a                	add	a4,a4,sp
    1268:	03074383          	lbu	t2,48(a4)
    126c:	00d60703          	lb	a4,13(a2)
    1270:	0183939b          	slliw	t2,t2,0x18
    1274:	00575513          	srli	a0,a4,0x5
    1278:	8905                	andi	a0,a0,1
    127a:	8b7d                	andi	a4,a4,31
    127c:	4183d39b          	sraiw	t2,t2,0x18
    1280:	04070713          	addi	a4,a4,64
    1284:	b20507e3          	beqz	a0,db2 <permute_vnx32qi+0x1f4>
    1288:	970a                	add	a4,a4,sp
    128a:	03074283          	lbu	t0,48(a4)
    128e:	00e60703          	lb	a4,14(a2)
    1292:	0182929b          	slliw	t0,t0,0x18
    1296:	00575513          	srli	a0,a4,0x5
    129a:	8905                	andi	a0,a0,1
    129c:	8b7d                	andi	a4,a4,31
    129e:	4182d29b          	sraiw	t0,t0,0x18
    12a2:	04070713          	addi	a4,a4,64
    12a6:	b20507e3          	beqz	a0,dd4 <permute_vnx32qi+0x216>
    12aa:	970a                	add	a4,a4,sp
    12ac:	03074503          	lbu	a0,48(a4)
    12b0:	b62d                	j	dda <permute_vnx32qi+0x21c>
    12b2:	fe05c783          	lbu	a5,-32(a1)
    12b6:	b379                	j	1044 <permute_vnx32qi+0x486>
    12b8:	970a                	add	a4,a4,sp
    12ba:	03074703          	lbu	a4,48(a4)
    12be:	bb8d                	j	1030 <permute_vnx32qi+0x472>
    12c0:	970a                	add	a4,a4,sp
    12c2:	03074d83          	lbu	s11,48(a4)
    12c6:	b399                	j	100c <permute_vnx32qi+0x44e>
    12c8:	970a                	add	a4,a4,sp
    12ca:	03074503          	lbu	a0,48(a4)
    12ce:	bb29                	j	fe8 <permute_vnx32qi+0x42a>
    12d0:	970a                	add	a4,a4,sp
    12d2:	03074803          	lbu	a6,48(a4)
    12d6:	b9c5                	j	fc6 <permute_vnx32qi+0x408>
    12d8:	970a                	add	a4,a4,sp
    12da:	03074883          	lbu	a7,48(a4)
    12de:	b1d9                	j	fa4 <permute_vnx32qi+0x3e6>
    12e0:	970a                	add	a4,a4,sp
    12e2:	03074303          	lbu	t1,48(a4)
    12e6:	b971                	j	f82 <permute_vnx32qi+0x3c4>
    12e8:	970a                	add	a4,a4,sp
    12ea:	03074e03          	lbu	t3,48(a4)
    12ee:	b98d                	j	f60 <permute_vnx32qi+0x3a2>
    12f0:	970a                	add	a4,a4,sp
    12f2:	03074e83          	lbu	t4,48(a4)
    12f6:	b1a1                	j	f3e <permute_vnx32qi+0x380>
    12f8:	970a                	add	a4,a4,sp
    12fa:	03074f03          	lbu	t5,48(a4)
    12fe:	b939                	j	f1c <permute_vnx32qi+0x35e>
    1300:	970a                	add	a4,a4,sp
    1302:	03074f83          	lbu	t6,48(a4)
    1306:	bed5                	j	efa <permute_vnx32qi+0x33c>
    1308:	970a                	add	a4,a4,sp
    130a:	03074503          	lbu	a0,48(a4)
    130e:	b6e1                	j	ed6 <permute_vnx32qi+0x318>
    1310:	970a                	add	a4,a4,sp
    1312:	03074503          	lbu	a0,48(a4)
    1316:	be71                	j	eb2 <permute_vnx32qi+0x2f4>
    1318:	970a                	add	a4,a4,sp
    131a:	03074503          	lbu	a0,48(a4)
    131e:	be85                	j	e8e <permute_vnx32qi+0x2d0>
    1320:	970a                	add	a4,a4,sp
    1322:	03074503          	lbu	a0,48(a4)
    1326:	b691                	j	e6a <permute_vnx32qi+0x2ac>
    1328:	970a                	add	a4,a4,sp
    132a:	03074503          	lbu	a0,48(a4)
    132e:	be21                	j	e46 <permute_vnx32qi+0x288>
    1330:	970a                	add	a4,a4,sp
    1332:	03074503          	lbu	a0,48(a4)
    1336:	b4f5                	j	e22 <permute_vnx32qi+0x264>
    1338:	970a                	add	a4,a4,sp
    133a:	03074503          	lbu	a0,48(a4)
    133e:	b4c1                	j	dfe <permute_vnx32qi+0x240>

0000000000001340 <permute_vnx64qi>:
    1340:	dd010113          	addi	sp,sp,-560
    1344:	22813423          	sd	s0,552(sp)
    1348:	22913023          	sd	s1,544(sp)
    134c:	21213c23          	sd	s2,536(sp)
    1350:	21313823          	sd	s3,528(sp)
    1354:	21413423          	sd	s4,520(sp)
    1358:	21513023          	sd	s5,512(sp)
    135c:	ffda                	sd	s6,504(sp)
    135e:	fbde                	sd	s7,496(sp)
    1360:	f7e2                	sd	s8,488(sp)
    1362:	f3e6                	sd	s9,480(sp)
    1364:	efea                	sd	s10,472(sp)
    1366:	ebee                	sd	s11,464(sp)
    1368:	cdb47057          	vsetivli	zero,8,e64,m8,ta,ma
    136c:	02057807          	vle64.v	v16,(a0)
    1370:	0a9c                	addi	a5,sp,336
    1372:	0205f407          	vle64.v	v8,(a1)
    1376:	0a88                	addi	a0,sp,336
    1378:	0207f827          	vse64.v	v16,(a5)
    137c:	00060783          	lb	a5,0(a2)
    1380:	00160703          	lb	a4,1(a2)
    1384:	03f7f593          	andi	a1,a5,63
    1388:	08058593          	addi	a1,a1,128
    138c:	95aa                	add	a1,a1,a0
    138e:	e6ae                	sd	a1,328(sp)
    1390:	f8058583          	lb	a1,-128(a1)
    1394:	e2ae                	sd	a1,320(sp)
    1396:	0b0c                	addi	a1,sp,400
    1398:	0205f427          	vse64.v	v8,(a1)
    139c:	00675593          	srli	a1,a4,0x6
    13a0:	8985                	andi	a1,a1,1
    13a2:	03f77713          	andi	a4,a4,63
    13a6:	08070713          	addi	a4,a4,128
    13aa:	2a0590e3          	bnez	a1,1e4a <permute_vnx64qi+0xb0a>
    13ae:	972a                	add	a4,a4,a0
    13b0:	f8074583          	lbu	a1,-128(a4)
    13b4:	00260703          	lb	a4,2(a2)
    13b8:	0185959b          	slliw	a1,a1,0x18
    13bc:	4185d59b          	sraiw	a1,a1,0x18
    13c0:	e42e                	sd	a1,8(sp)
    13c2:	00675593          	srli	a1,a4,0x6
    13c6:	8985                	andi	a1,a1,1
    13c8:	03f77713          	andi	a4,a4,63
    13cc:	08070713          	addi	a4,a4,128
    13d0:	4a0592e3          	bnez	a1,2074 <permute_vnx64qi+0xd34>
    13d4:	970a                	add	a4,a4,sp
    13d6:	0d074583          	lbu	a1,208(a4)
    13da:	00360703          	lb	a4,3(a2)
    13de:	0185959b          	slliw	a1,a1,0x18
    13e2:	4185d59b          	sraiw	a1,a1,0x18
    13e6:	e82e                	sd	a1,16(sp)
    13e8:	00675593          	srli	a1,a4,0x6
    13ec:	8985                	andi	a1,a1,1
    13ee:	03f77713          	andi	a4,a4,63
    13f2:	08070713          	addi	a4,a4,128
    13f6:	46059ae3          	bnez	a1,206a <permute_vnx64qi+0xd2a>
    13fa:	970a                	add	a4,a4,sp
    13fc:	0d074583          	lbu	a1,208(a4)
    1400:	00460703          	lb	a4,4(a2)
    1404:	0185959b          	slliw	a1,a1,0x18
    1408:	4185d59b          	sraiw	a1,a1,0x18
    140c:	ec2e                	sd	a1,24(sp)
    140e:	00675593          	srli	a1,a4,0x6
    1412:	8985                	andi	a1,a1,1
    1414:	03f77713          	andi	a4,a4,63
    1418:	08070713          	addi	a4,a4,128
    141c:	440592e3          	bnez	a1,2060 <permute_vnx64qi+0xd20>
    1420:	970a                	add	a4,a4,sp
    1422:	0d074583          	lbu	a1,208(a4)
    1426:	00560703          	lb	a4,5(a2)
    142a:	0185959b          	slliw	a1,a1,0x18
    142e:	4185d59b          	sraiw	a1,a1,0x18
    1432:	f02e                	sd	a1,32(sp)
    1434:	00675593          	srli	a1,a4,0x6
    1438:	8985                	andi	a1,a1,1
    143a:	03f77713          	andi	a4,a4,63
    143e:	08070713          	addi	a4,a4,128
    1442:	40059ae3          	bnez	a1,2056 <permute_vnx64qi+0xd16>
    1446:	970a                	add	a4,a4,sp
    1448:	0d074583          	lbu	a1,208(a4)
    144c:	00660703          	lb	a4,6(a2)
    1450:	0185959b          	slliw	a1,a1,0x18
    1454:	4185d59b          	sraiw	a1,a1,0x18
    1458:	f42e                	sd	a1,40(sp)
    145a:	00675593          	srli	a1,a4,0x6
    145e:	8985                	andi	a1,a1,1
    1460:	03f77713          	andi	a4,a4,63
    1464:	08070713          	addi	a4,a4,128
    1468:	3e0592e3          	bnez	a1,204c <permute_vnx64qi+0xd0c>
    146c:	970a                	add	a4,a4,sp
    146e:	0d074583          	lbu	a1,208(a4)
    1472:	00760703          	lb	a4,7(a2)
    1476:	0185959b          	slliw	a1,a1,0x18
    147a:	4185d59b          	sraiw	a1,a1,0x18
    147e:	f82e                	sd	a1,48(sp)
    1480:	00675593          	srli	a1,a4,0x6
    1484:	8985                	andi	a1,a1,1
    1486:	03f77713          	andi	a4,a4,63
    148a:	08070713          	addi	a4,a4,128
    148e:	3a059ae3          	bnez	a1,2042 <permute_vnx64qi+0xd02>
    1492:	970a                	add	a4,a4,sp
    1494:	0d074583          	lbu	a1,208(a4)
    1498:	00860703          	lb	a4,8(a2)
    149c:	0185959b          	slliw	a1,a1,0x18
    14a0:	4185d59b          	sraiw	a1,a1,0x18
    14a4:	fc2e                	sd	a1,56(sp)
    14a6:	00675593          	srli	a1,a4,0x6
    14aa:	8985                	andi	a1,a1,1
    14ac:	03f77713          	andi	a4,a4,63
    14b0:	08070713          	addi	a4,a4,128
    14b4:	380592e3          	bnez	a1,2038 <permute_vnx64qi+0xcf8>
    14b8:	970a                	add	a4,a4,sp
    14ba:	0d074583          	lbu	a1,208(a4)
    14be:	00960703          	lb	a4,9(a2)
    14c2:	0185959b          	slliw	a1,a1,0x18
    14c6:	4185d59b          	sraiw	a1,a1,0x18
    14ca:	e0ae                	sd	a1,64(sp)
    14cc:	00675593          	srli	a1,a4,0x6
    14d0:	8985                	andi	a1,a1,1
    14d2:	03f77713          	andi	a4,a4,63
    14d6:	08070713          	addi	a4,a4,128
    14da:	34059ae3          	bnez	a1,202e <permute_vnx64qi+0xcee>
    14de:	970a                	add	a4,a4,sp
    14e0:	0d074583          	lbu	a1,208(a4)
    14e4:	00a60703          	lb	a4,10(a2)
    14e8:	0185959b          	slliw	a1,a1,0x18
    14ec:	4185d59b          	sraiw	a1,a1,0x18
    14f0:	e4ae                	sd	a1,72(sp)
    14f2:	00675593          	srli	a1,a4,0x6
    14f6:	8985                	andi	a1,a1,1
    14f8:	03f77713          	andi	a4,a4,63
    14fc:	08070713          	addi	a4,a4,128
    1500:	320592e3          	bnez	a1,2024 <permute_vnx64qi+0xce4>
    1504:	970a                	add	a4,a4,sp
    1506:	0d074583          	lbu	a1,208(a4)
    150a:	00b60703          	lb	a4,11(a2)
    150e:	0185959b          	slliw	a1,a1,0x18
    1512:	4185d59b          	sraiw	a1,a1,0x18
    1516:	e8ae                	sd	a1,80(sp)
    1518:	00675593          	srli	a1,a4,0x6
    151c:	8985                	andi	a1,a1,1
    151e:	03f77713          	andi	a4,a4,63
    1522:	08070713          	addi	a4,a4,128
    1526:	2e059ae3          	bnez	a1,201a <permute_vnx64qi+0xcda>
    152a:	970a                	add	a4,a4,sp
    152c:	0d074583          	lbu	a1,208(a4)
    1530:	00c60703          	lb	a4,12(a2)
    1534:	0185959b          	slliw	a1,a1,0x18
    1538:	4185d59b          	sraiw	a1,a1,0x18
    153c:	ecae                	sd	a1,88(sp)
    153e:	00675593          	srli	a1,a4,0x6
    1542:	8985                	andi	a1,a1,1
    1544:	03f77713          	andi	a4,a4,63
    1548:	08070713          	addi	a4,a4,128
    154c:	2c0592e3          	bnez	a1,2010 <permute_vnx64qi+0xcd0>
    1550:	970a                	add	a4,a4,sp
    1552:	0d074583          	lbu	a1,208(a4)
    1556:	00d60703          	lb	a4,13(a2)
    155a:	0185959b          	slliw	a1,a1,0x18
    155e:	4185d59b          	sraiw	a1,a1,0x18
    1562:	f0ae                	sd	a1,96(sp)
    1564:	00675593          	srli	a1,a4,0x6
    1568:	8985                	andi	a1,a1,1
    156a:	03f77713          	andi	a4,a4,63
    156e:	08070713          	addi	a4,a4,128
    1572:	28059ae3          	bnez	a1,2006 <permute_vnx64qi+0xcc6>
    1576:	970a                	add	a4,a4,sp
    1578:	0d074583          	lbu	a1,208(a4)
    157c:	00e60703          	lb	a4,14(a2)
    1580:	0185959b          	slliw	a1,a1,0x18
    1584:	4185d59b          	sraiw	a1,a1,0x18
    1588:	f4ae                	sd	a1,104(sp)
    158a:	00675593          	srli	a1,a4,0x6
    158e:	8985                	andi	a1,a1,1
    1590:	03f77713          	andi	a4,a4,63
    1594:	08070713          	addi	a4,a4,128
    1598:	260592e3          	bnez	a1,1ffc <permute_vnx64qi+0xcbc>
    159c:	970a                	add	a4,a4,sp
    159e:	0d074583          	lbu	a1,208(a4)
    15a2:	00f60703          	lb	a4,15(a2)
    15a6:	0185959b          	slliw	a1,a1,0x18
    15aa:	4185d59b          	sraiw	a1,a1,0x18
    15ae:	f8ae                	sd	a1,112(sp)
    15b0:	00675593          	srli	a1,a4,0x6
    15b4:	8985                	andi	a1,a1,1
    15b6:	03f77713          	andi	a4,a4,63
    15ba:	08070713          	addi	a4,a4,128
    15be:	22059ae3          	bnez	a1,1ff2 <permute_vnx64qi+0xcb2>
    15c2:	970a                	add	a4,a4,sp
    15c4:	0d074583          	lbu	a1,208(a4)
    15c8:	01060703          	lb	a4,16(a2)
    15cc:	0185959b          	slliw	a1,a1,0x18
    15d0:	4185d59b          	sraiw	a1,a1,0x18
    15d4:	fcae                	sd	a1,120(sp)
    15d6:	00675593          	srli	a1,a4,0x6
    15da:	8985                	andi	a1,a1,1
    15dc:	03f77713          	andi	a4,a4,63
    15e0:	08070713          	addi	a4,a4,128
    15e4:	200592e3          	bnez	a1,1fe8 <permute_vnx64qi+0xca8>
    15e8:	970a                	add	a4,a4,sp
    15ea:	0d074583          	lbu	a1,208(a4)
    15ee:	01160703          	lb	a4,17(a2)
    15f2:	0185959b          	slliw	a1,a1,0x18
    15f6:	4185d59b          	sraiw	a1,a1,0x18
    15fa:	e12e                	sd	a1,128(sp)
    15fc:	00675593          	srli	a1,a4,0x6
    1600:	8985                	andi	a1,a1,1
    1602:	03f77713          	andi	a4,a4,63
    1606:	08070713          	addi	a4,a4,128
    160a:	1c059ae3          	bnez	a1,1fde <permute_vnx64qi+0xc9e>
    160e:	970a                	add	a4,a4,sp
    1610:	0d074583          	lbu	a1,208(a4)
    1614:	01260703          	lb	a4,18(a2)
    1618:	0185959b          	slliw	a1,a1,0x18
    161c:	4185d59b          	sraiw	a1,a1,0x18
    1620:	e52e                	sd	a1,136(sp)
    1622:	00675593          	srli	a1,a4,0x6
    1626:	8985                	andi	a1,a1,1
    1628:	03f77713          	andi	a4,a4,63
    162c:	08070713          	addi	a4,a4,128
    1630:	1a0592e3          	bnez	a1,1fd4 <permute_vnx64qi+0xc94>
    1634:	970a                	add	a4,a4,sp
    1636:	0d074583          	lbu	a1,208(a4)
    163a:	01360703          	lb	a4,19(a2)
    163e:	0185959b          	slliw	a1,a1,0x18
    1642:	4185d59b          	sraiw	a1,a1,0x18
    1646:	e92e                	sd	a1,144(sp)
    1648:	00675593          	srli	a1,a4,0x6
    164c:	8985                	andi	a1,a1,1
    164e:	03f77713          	andi	a4,a4,63
    1652:	08070713          	addi	a4,a4,128
    1656:	16059ae3          	bnez	a1,1fca <permute_vnx64qi+0xc8a>
    165a:	970a                	add	a4,a4,sp
    165c:	0d074583          	lbu	a1,208(a4)
    1660:	01460703          	lb	a4,20(a2)
    1664:	0185959b          	slliw	a1,a1,0x18
    1668:	4185d59b          	sraiw	a1,a1,0x18
    166c:	ed2e                	sd	a1,152(sp)
    166e:	00675593          	srli	a1,a4,0x6
    1672:	8985                	andi	a1,a1,1
    1674:	03f77713          	andi	a4,a4,63
    1678:	08070713          	addi	a4,a4,128
    167c:	140592e3          	bnez	a1,1fc0 <permute_vnx64qi+0xc80>
    1680:	970a                	add	a4,a4,sp
    1682:	0d074583          	lbu	a1,208(a4)
    1686:	01560703          	lb	a4,21(a2)
    168a:	0185959b          	slliw	a1,a1,0x18
    168e:	4185d59b          	sraiw	a1,a1,0x18
    1692:	f12e                	sd	a1,160(sp)
    1694:	00675593          	srli	a1,a4,0x6
    1698:	8985                	andi	a1,a1,1
    169a:	03f77713          	andi	a4,a4,63
    169e:	08070713          	addi	a4,a4,128
    16a2:	10059ae3          	bnez	a1,1fb6 <permute_vnx64qi+0xc76>
    16a6:	970a                	add	a4,a4,sp
    16a8:	0d074583          	lbu	a1,208(a4)
    16ac:	01660703          	lb	a4,22(a2)
    16b0:	0185959b          	slliw	a1,a1,0x18
    16b4:	4185d59b          	sraiw	a1,a1,0x18
    16b8:	f52e                	sd	a1,168(sp)
    16ba:	00675593          	srli	a1,a4,0x6
    16be:	8985                	andi	a1,a1,1
    16c0:	03f77713          	andi	a4,a4,63
    16c4:	08070713          	addi	a4,a4,128
    16c8:	0e0592e3          	bnez	a1,1fac <permute_vnx64qi+0xc6c>
    16cc:	970a                	add	a4,a4,sp
    16ce:	0d074583          	lbu	a1,208(a4)
    16d2:	01760703          	lb	a4,23(a2)
    16d6:	0185959b          	slliw	a1,a1,0x18
    16da:	4185d59b          	sraiw	a1,a1,0x18
    16de:	f92e                	sd	a1,176(sp)
    16e0:	00675593          	srli	a1,a4,0x6
    16e4:	8985                	andi	a1,a1,1
    16e6:	03f77713          	andi	a4,a4,63
    16ea:	08070713          	addi	a4,a4,128
    16ee:	0a059ae3          	bnez	a1,1fa2 <permute_vnx64qi+0xc62>
    16f2:	970a                	add	a4,a4,sp
    16f4:	0d074583          	lbu	a1,208(a4)
    16f8:	01860703          	lb	a4,24(a2)
    16fc:	0185959b          	slliw	a1,a1,0x18
    1700:	4185d59b          	sraiw	a1,a1,0x18
    1704:	fd2e                	sd	a1,184(sp)
    1706:	00675593          	srli	a1,a4,0x6
    170a:	8985                	andi	a1,a1,1
    170c:	03f77713          	andi	a4,a4,63
    1710:	08070713          	addi	a4,a4,128
    1714:	080592e3          	bnez	a1,1f98 <permute_vnx64qi+0xc58>
    1718:	970a                	add	a4,a4,sp
    171a:	0d074583          	lbu	a1,208(a4)
    171e:	01960703          	lb	a4,25(a2)
    1722:	0185959b          	slliw	a1,a1,0x18
    1726:	4185d59b          	sraiw	a1,a1,0x18
    172a:	e1ae                	sd	a1,192(sp)
    172c:	00675593          	srli	a1,a4,0x6
    1730:	8985                	andi	a1,a1,1
    1732:	03f77713          	andi	a4,a4,63
    1736:	08070713          	addi	a4,a4,128
    173a:	04059ae3          	bnez	a1,1f8e <permute_vnx64qi+0xc4e>
    173e:	970a                	add	a4,a4,sp
    1740:	0d074583          	lbu	a1,208(a4)
    1744:	01a60703          	lb	a4,26(a2)
    1748:	0185959b          	slliw	a1,a1,0x18
    174c:	4185d59b          	sraiw	a1,a1,0x18
    1750:	e5ae                	sd	a1,200(sp)
    1752:	00675593          	srli	a1,a4,0x6
    1756:	8985                	andi	a1,a1,1
    1758:	03f77713          	andi	a4,a4,63
    175c:	08070713          	addi	a4,a4,128
    1760:	020592e3          	bnez	a1,1f84 <permute_vnx64qi+0xc44>
    1764:	970a                	add	a4,a4,sp
    1766:	0d074583          	lbu	a1,208(a4)
    176a:	01b60703          	lb	a4,27(a2)
    176e:	0185959b          	slliw	a1,a1,0x18
    1772:	4185d59b          	sraiw	a1,a1,0x18
    1776:	e9ae                	sd	a1,208(sp)
    1778:	00675593          	srli	a1,a4,0x6
    177c:	8985                	andi	a1,a1,1
    177e:	03f77713          	andi	a4,a4,63
    1782:	08070713          	addi	a4,a4,128
    1786:	7e059b63          	bnez	a1,1f7c <permute_vnx64qi+0xc3c>
    178a:	970a                	add	a4,a4,sp
    178c:	0d074583          	lbu	a1,208(a4)
    1790:	01c60703          	lb	a4,28(a2)
    1794:	0185959b          	slliw	a1,a1,0x18
    1798:	4185d59b          	sraiw	a1,a1,0x18
    179c:	edae                	sd	a1,216(sp)
    179e:	00675593          	srli	a1,a4,0x6
    17a2:	8985                	andi	a1,a1,1
    17a4:	03f77713          	andi	a4,a4,63
    17a8:	08070713          	addi	a4,a4,128
    17ac:	7c059463          	bnez	a1,1f74 <permute_vnx64qi+0xc34>
    17b0:	970a                	add	a4,a4,sp
    17b2:	0d074583          	lbu	a1,208(a4)
    17b6:	01d60703          	lb	a4,29(a2)
    17ba:	0185959b          	slliw	a1,a1,0x18
    17be:	4185d59b          	sraiw	a1,a1,0x18
    17c2:	f1ae                	sd	a1,224(sp)
    17c4:	00675593          	srli	a1,a4,0x6
    17c8:	8985                	andi	a1,a1,1
    17ca:	03f77713          	andi	a4,a4,63
    17ce:	08070713          	addi	a4,a4,128
    17d2:	78059d63          	bnez	a1,1f6c <permute_vnx64qi+0xc2c>
    17d6:	970a                	add	a4,a4,sp
    17d8:	0d074583          	lbu	a1,208(a4)
    17dc:	01e60703          	lb	a4,30(a2)
    17e0:	0185959b          	slliw	a1,a1,0x18
    17e4:	4185d59b          	sraiw	a1,a1,0x18
    17e8:	f5ae                	sd	a1,232(sp)
    17ea:	00675593          	srli	a1,a4,0x6
    17ee:	8985                	andi	a1,a1,1
    17f0:	03f77713          	andi	a4,a4,63
    17f4:	08070713          	addi	a4,a4,128
    17f8:	76059663          	bnez	a1,1f64 <permute_vnx64qi+0xc24>
    17fc:	970a                	add	a4,a4,sp
    17fe:	0d074583          	lbu	a1,208(a4)
    1802:	01f60703          	lb	a4,31(a2)
    1806:	0185959b          	slliw	a1,a1,0x18
    180a:	4185d59b          	sraiw	a1,a1,0x18
    180e:	f9ae                	sd	a1,240(sp)
    1810:	00675593          	srli	a1,a4,0x6
    1814:	8985                	andi	a1,a1,1
    1816:	03f77713          	andi	a4,a4,63
    181a:	08070713          	addi	a4,a4,128
    181e:	72059f63          	bnez	a1,1f5c <permute_vnx64qi+0xc1c>
    1822:	970a                	add	a4,a4,sp
    1824:	0d074583          	lbu	a1,208(a4)
    1828:	02060703          	lb	a4,32(a2)
    182c:	0185959b          	slliw	a1,a1,0x18
    1830:	4185d59b          	sraiw	a1,a1,0x18
    1834:	fdae                	sd	a1,248(sp)
    1836:	00675593          	srli	a1,a4,0x6
    183a:	8985                	andi	a1,a1,1
    183c:	03f77713          	andi	a4,a4,63
    1840:	08070713          	addi	a4,a4,128
    1844:	70059863          	bnez	a1,1f54 <permute_vnx64qi+0xc14>
    1848:	970a                	add	a4,a4,sp
    184a:	0d074583          	lbu	a1,208(a4)
    184e:	02160703          	lb	a4,33(a2)
    1852:	0185959b          	slliw	a1,a1,0x18
    1856:	4185d59b          	sraiw	a1,a1,0x18
    185a:	e22e                	sd	a1,256(sp)
    185c:	00675593          	srli	a1,a4,0x6
    1860:	8985                	andi	a1,a1,1
    1862:	03f77713          	andi	a4,a4,63
    1866:	08070713          	addi	a4,a4,128
    186a:	6e059163          	bnez	a1,1f4c <permute_vnx64qi+0xc0c>
    186e:	970a                	add	a4,a4,sp
    1870:	0d074583          	lbu	a1,208(a4)
    1874:	02260703          	lb	a4,34(a2)
    1878:	0185959b          	slliw	a1,a1,0x18
    187c:	4185d59b          	sraiw	a1,a1,0x18
    1880:	e62e                	sd	a1,264(sp)
    1882:	00675593          	srli	a1,a4,0x6
    1886:	8985                	andi	a1,a1,1
    1888:	03f77713          	andi	a4,a4,63
    188c:	08070713          	addi	a4,a4,128
    1890:	6a059a63          	bnez	a1,1f44 <permute_vnx64qi+0xc04>
    1894:	970a                	add	a4,a4,sp
    1896:	0d074583          	lbu	a1,208(a4)
    189a:	02360703          	lb	a4,35(a2)
    189e:	0185959b          	slliw	a1,a1,0x18
    18a2:	4185d59b          	sraiw	a1,a1,0x18
    18a6:	ea2e                	sd	a1,272(sp)
    18a8:	00675593          	srli	a1,a4,0x6
    18ac:	8985                	andi	a1,a1,1
    18ae:	03f77713          	andi	a4,a4,63
    18b2:	08070713          	addi	a4,a4,128
    18b6:	68059363          	bnez	a1,1f3c <permute_vnx64qi+0xbfc>
    18ba:	970a                	add	a4,a4,sp
    18bc:	0d074583          	lbu	a1,208(a4)
    18c0:	02460703          	lb	a4,36(a2)
    18c4:	0185959b          	slliw	a1,a1,0x18
    18c8:	4185d59b          	sraiw	a1,a1,0x18
    18cc:	ee2e                	sd	a1,280(sp)
    18ce:	00675593          	srli	a1,a4,0x6
    18d2:	8985                	andi	a1,a1,1
    18d4:	03f77713          	andi	a4,a4,63
    18d8:	08070713          	addi	a4,a4,128
    18dc:	64059c63          	bnez	a1,1f34 <permute_vnx64qi+0xbf4>
    18e0:	970a                	add	a4,a4,sp
    18e2:	0d074583          	lbu	a1,208(a4)
    18e6:	02560703          	lb	a4,37(a2)
    18ea:	0185959b          	slliw	a1,a1,0x18
    18ee:	4185d59b          	sraiw	a1,a1,0x18
    18f2:	f22e                	sd	a1,288(sp)
    18f4:	00675593          	srli	a1,a4,0x6
    18f8:	8985                	andi	a1,a1,1
    18fa:	03f77713          	andi	a4,a4,63
    18fe:	08070713          	addi	a4,a4,128
    1902:	62059563          	bnez	a1,1f2c <permute_vnx64qi+0xbec>
    1906:	970a                	add	a4,a4,sp
    1908:	0d074583          	lbu	a1,208(a4)
    190c:	02660703          	lb	a4,38(a2)
    1910:	0185959b          	slliw	a1,a1,0x18
    1914:	4185d59b          	sraiw	a1,a1,0x18
    1918:	f62e                	sd	a1,296(sp)
    191a:	00675593          	srli	a1,a4,0x6
    191e:	8985                	andi	a1,a1,1
    1920:	03f77713          	andi	a4,a4,63
    1924:	08070713          	addi	a4,a4,128
    1928:	5e059e63          	bnez	a1,1f24 <permute_vnx64qi+0xbe4>
    192c:	970a                	add	a4,a4,sp
    192e:	0d074583          	lbu	a1,208(a4)
    1932:	02760703          	lb	a4,39(a2)
    1936:	0185959b          	slliw	a1,a1,0x18
    193a:	4185d59b          	sraiw	a1,a1,0x18
    193e:	fa2e                	sd	a1,304(sp)
    1940:	00675593          	srli	a1,a4,0x6
    1944:	8985                	andi	a1,a1,1
    1946:	03f77713          	andi	a4,a4,63
    194a:	08070713          	addi	a4,a4,128
    194e:	5c059763          	bnez	a1,1f1c <permute_vnx64qi+0xbdc>
    1952:	970a                	add	a4,a4,sp
    1954:	0d074583          	lbu	a1,208(a4)
    1958:	02860703          	lb	a4,40(a2)
    195c:	0185959b          	slliw	a1,a1,0x18
    1960:	4185d59b          	sraiw	a1,a1,0x18
    1964:	fe2e                	sd	a1,312(sp)
    1966:	00675593          	srli	a1,a4,0x6
    196a:	8985                	andi	a1,a1,1
    196c:	03f77713          	andi	a4,a4,63
    1970:	08070713          	addi	a4,a4,128
    1974:	5a059063          	bnez	a1,1f14 <permute_vnx64qi+0xbd4>
    1978:	970a                	add	a4,a4,sp
    197a:	0d074d03          	lbu	s10,208(a4)
    197e:	02960703          	lb	a4,41(a2)
    1982:	018d1d1b          	slliw	s10,s10,0x18
    1986:	418d5d1b          	sraiw	s10,s10,0x18
    198a:	00675593          	srli	a1,a4,0x6
    198e:	8985                	andi	a1,a1,1
    1990:	03f77713          	andi	a4,a4,63
    1994:	08070713          	addi	a4,a4,128
    1998:	56059a63          	bnez	a1,1f0c <permute_vnx64qi+0xbcc>
    199c:	970a                	add	a4,a4,sp
    199e:	0d074c83          	lbu	s9,208(a4)
    19a2:	02a60703          	lb	a4,42(a2)
    19a6:	018c9c9b          	slliw	s9,s9,0x18
    19aa:	418cdc9b          	sraiw	s9,s9,0x18
    19ae:	00675593          	srli	a1,a4,0x6
    19b2:	8985                	andi	a1,a1,1
    19b4:	03f77713          	andi	a4,a4,63
    19b8:	08070713          	addi	a4,a4,128
    19bc:	54059463          	bnez	a1,1f04 <permute_vnx64qi+0xbc4>
    19c0:	970a                	add	a4,a4,sp
    19c2:	0d074c03          	lbu	s8,208(a4)
    19c6:	02b60703          	lb	a4,43(a2)
    19ca:	018c1c1b          	slliw	s8,s8,0x18
    19ce:	418c5c1b          	sraiw	s8,s8,0x18
    19d2:	00675593          	srli	a1,a4,0x6
    19d6:	8985                	andi	a1,a1,1
    19d8:	03f77713          	andi	a4,a4,63
    19dc:	08070713          	addi	a4,a4,128
    19e0:	50059e63          	bnez	a1,1efc <permute_vnx64qi+0xbbc>
    19e4:	970a                	add	a4,a4,sp
    19e6:	0d074b83          	lbu	s7,208(a4)
    19ea:	02c60703          	lb	a4,44(a2)
    19ee:	018b9b9b          	slliw	s7,s7,0x18
    19f2:	418bdb9b          	sraiw	s7,s7,0x18
    19f6:	00675593          	srli	a1,a4,0x6
    19fa:	8985                	andi	a1,a1,1
    19fc:	03f77713          	andi	a4,a4,63
    1a00:	08070713          	addi	a4,a4,128
    1a04:	4e059863          	bnez	a1,1ef4 <permute_vnx64qi+0xbb4>
    1a08:	970a                	add	a4,a4,sp
    1a0a:	0d074b03          	lbu	s6,208(a4)
    1a0e:	02d60703          	lb	a4,45(a2)
    1a12:	018b1b1b          	slliw	s6,s6,0x18
    1a16:	418b5b1b          	sraiw	s6,s6,0x18
    1a1a:	00675593          	srli	a1,a4,0x6
    1a1e:	8985                	andi	a1,a1,1
    1a20:	03f77713          	andi	a4,a4,63
    1a24:	08070713          	addi	a4,a4,128
    1a28:	4c059263          	bnez	a1,1eec <permute_vnx64qi+0xbac>
    1a2c:	970a                	add	a4,a4,sp
    1a2e:	0d074a83          	lbu	s5,208(a4)
    1a32:	02e60703          	lb	a4,46(a2)
    1a36:	018a9a9b          	slliw	s5,s5,0x18
    1a3a:	418ada9b          	sraiw	s5,s5,0x18
    1a3e:	00675593          	srli	a1,a4,0x6
    1a42:	8985                	andi	a1,a1,1
    1a44:	03f77713          	andi	a4,a4,63
    1a48:	08070713          	addi	a4,a4,128
    1a4c:	48059c63          	bnez	a1,1ee4 <permute_vnx64qi+0xba4>
    1a50:	970a                	add	a4,a4,sp
    1a52:	0d074a03          	lbu	s4,208(a4)
    1a56:	02f60703          	lb	a4,47(a2)
    1a5a:	018a1a1b          	slliw	s4,s4,0x18
    1a5e:	418a5a1b          	sraiw	s4,s4,0x18
    1a62:	00675593          	srli	a1,a4,0x6
    1a66:	8985                	andi	a1,a1,1
    1a68:	03f77713          	andi	a4,a4,63
    1a6c:	08070713          	addi	a4,a4,128
    1a70:	46059663          	bnez	a1,1edc <permute_vnx64qi+0xb9c>
    1a74:	970a                	add	a4,a4,sp
    1a76:	0d074983          	lbu	s3,208(a4)
    1a7a:	03060703          	lb	a4,48(a2)
    1a7e:	0189999b          	slliw	s3,s3,0x18
    1a82:	4189d99b          	sraiw	s3,s3,0x18
    1a86:	00675593          	srli	a1,a4,0x6
    1a8a:	8985                	andi	a1,a1,1
    1a8c:	03f77713          	andi	a4,a4,63
    1a90:	08070713          	addi	a4,a4,128
    1a94:	44059063          	bnez	a1,1ed4 <permute_vnx64qi+0xb94>
    1a98:	970a                	add	a4,a4,sp
    1a9a:	0d074903          	lbu	s2,208(a4)
    1a9e:	03160703          	lb	a4,49(a2)
    1aa2:	0189191b          	slliw	s2,s2,0x18
    1aa6:	4189591b          	sraiw	s2,s2,0x18
    1aaa:	00675593          	srli	a1,a4,0x6
    1aae:	8985                	andi	a1,a1,1
    1ab0:	03f77713          	andi	a4,a4,63
    1ab4:	08070713          	addi	a4,a4,128
    1ab8:	40059a63          	bnez	a1,1ecc <permute_vnx64qi+0xb8c>
    1abc:	970a                	add	a4,a4,sp
    1abe:	0d074483          	lbu	s1,208(a4)
    1ac2:	03260703          	lb	a4,50(a2)
    1ac6:	0184949b          	slliw	s1,s1,0x18
    1aca:	4184d49b          	sraiw	s1,s1,0x18
    1ace:	00675593          	srli	a1,a4,0x6
    1ad2:	8985                	andi	a1,a1,1
    1ad4:	03f77713          	andi	a4,a4,63
    1ad8:	08070713          	addi	a4,a4,128
    1adc:	3e059463          	bnez	a1,1ec4 <permute_vnx64qi+0xb84>
    1ae0:	970a                	add	a4,a4,sp
    1ae2:	0d074403          	lbu	s0,208(a4)
    1ae6:	03360703          	lb	a4,51(a2)
    1aea:	0184141b          	slliw	s0,s0,0x18
    1aee:	4184541b          	sraiw	s0,s0,0x18
    1af2:	00675593          	srli	a1,a4,0x6
    1af6:	8985                	andi	a1,a1,1
    1af8:	03f77713          	andi	a4,a4,63
    1afc:	08070713          	addi	a4,a4,128
    1b00:	3a059e63          	bnez	a1,1ebc <permute_vnx64qi+0xb7c>
    1b04:	970a                	add	a4,a4,sp
    1b06:	0d074383          	lbu	t2,208(a4)
    1b0a:	03460703          	lb	a4,52(a2)
    1b0e:	0183939b          	slliw	t2,t2,0x18
    1b12:	4183d39b          	sraiw	t2,t2,0x18
    1b16:	00675593          	srli	a1,a4,0x6
    1b1a:	8985                	andi	a1,a1,1
    1b1c:	03f77713          	andi	a4,a4,63
    1b20:	08070713          	addi	a4,a4,128
    1b24:	38059863          	bnez	a1,1eb4 <permute_vnx64qi+0xb74>
    1b28:	970a                	add	a4,a4,sp
    1b2a:	0d074283          	lbu	t0,208(a4)
    1b2e:	03560703          	lb	a4,53(a2)
    1b32:	0182929b          	slliw	t0,t0,0x18
    1b36:	4182d29b          	sraiw	t0,t0,0x18
    1b3a:	00675593          	srli	a1,a4,0x6
    1b3e:	8985                	andi	a1,a1,1
    1b40:	03f77713          	andi	a4,a4,63
    1b44:	08070713          	addi	a4,a4,128
    1b48:	36059263          	bnez	a1,1eac <permute_vnx64qi+0xb6c>
    1b4c:	970a                	add	a4,a4,sp
    1b4e:	0d074f83          	lbu	t6,208(a4)
    1b52:	03660703          	lb	a4,54(a2)
    1b56:	018f9f9b          	slliw	t6,t6,0x18
    1b5a:	418fdf9b          	sraiw	t6,t6,0x18
    1b5e:	00675593          	srli	a1,a4,0x6
    1b62:	8985                	andi	a1,a1,1
    1b64:	03f77713          	andi	a4,a4,63
    1b68:	08070713          	addi	a4,a4,128
    1b6c:	32059c63          	bnez	a1,1ea4 <permute_vnx64qi+0xb64>
    1b70:	970a                	add	a4,a4,sp
    1b72:	0d074f03          	lbu	t5,208(a4)
    1b76:	03760703          	lb	a4,55(a2)
    1b7a:	018f1f1b          	slliw	t5,t5,0x18
    1b7e:	418f5f1b          	sraiw	t5,t5,0x18
    1b82:	00675593          	srli	a1,a4,0x6
    1b86:	8985                	andi	a1,a1,1
    1b88:	03f77713          	andi	a4,a4,63
    1b8c:	08070713          	addi	a4,a4,128
    1b90:	30059663          	bnez	a1,1e9c <permute_vnx64qi+0xb5c>
    1b94:	970a                	add	a4,a4,sp
    1b96:	0d074e83          	lbu	t4,208(a4)
    1b9a:	03860703          	lb	a4,56(a2)
    1b9e:	018e9e9b          	slliw	t4,t4,0x18
    1ba2:	418ede9b          	sraiw	t4,t4,0x18
    1ba6:	00675593          	srli	a1,a4,0x6
    1baa:	8985                	andi	a1,a1,1
    1bac:	03f77713          	andi	a4,a4,63
    1bb0:	08070713          	addi	a4,a4,128
    1bb4:	2e059063          	bnez	a1,1e94 <permute_vnx64qi+0xb54>
    1bb8:	970a                	add	a4,a4,sp
    1bba:	0d074e03          	lbu	t3,208(a4)
    1bbe:	03960703          	lb	a4,57(a2)
    1bc2:	018e1e1b          	slliw	t3,t3,0x18
    1bc6:	418e5e1b          	sraiw	t3,t3,0x18
    1bca:	00675593          	srli	a1,a4,0x6
    1bce:	8985                	andi	a1,a1,1
    1bd0:	03f77713          	andi	a4,a4,63
    1bd4:	08070713          	addi	a4,a4,128
    1bd8:	2a059a63          	bnez	a1,1e8c <permute_vnx64qi+0xb4c>
    1bdc:	970a                	add	a4,a4,sp
    1bde:	0d074303          	lbu	t1,208(a4)
    1be2:	03a60703          	lb	a4,58(a2)
    1be6:	0183131b          	slliw	t1,t1,0x18
    1bea:	4183531b          	sraiw	t1,t1,0x18
    1bee:	00675593          	srli	a1,a4,0x6
    1bf2:	8985                	andi	a1,a1,1
    1bf4:	03f77713          	andi	a4,a4,63
    1bf8:	08070713          	addi	a4,a4,128
    1bfc:	28059463          	bnez	a1,1e84 <permute_vnx64qi+0xb44>
    1c00:	970a                	add	a4,a4,sp
    1c02:	0d074883          	lbu	a7,208(a4)
    1c06:	03b60703          	lb	a4,59(a2)
    1c0a:	0188989b          	slliw	a7,a7,0x18
    1c0e:	4188d89b          	sraiw	a7,a7,0x18
    1c12:	00675593          	srli	a1,a4,0x6
    1c16:	8985                	andi	a1,a1,1
    1c18:	03f77713          	andi	a4,a4,63
    1c1c:	08070713          	addi	a4,a4,128
    1c20:	24059e63          	bnez	a1,1e7c <permute_vnx64qi+0xb3c>
    1c24:	970a                	add	a4,a4,sp
    1c26:	0d074803          	lbu	a6,208(a4)
    1c2a:	03c60703          	lb	a4,60(a2)
    1c2e:	0188181b          	slliw	a6,a6,0x18
    1c32:	4188581b          	sraiw	a6,a6,0x18
    1c36:	00675593          	srli	a1,a4,0x6
    1c3a:	8985                	andi	a1,a1,1
    1c3c:	03f77713          	andi	a4,a4,63
    1c40:	08070713          	addi	a4,a4,128
    1c44:	22059863          	bnez	a1,1e74 <permute_vnx64qi+0xb34>
    1c48:	970a                	add	a4,a4,sp
    1c4a:	0d074503          	lbu	a0,208(a4)
    1c4e:	03d60703          	lb	a4,61(a2)
    1c52:	0185151b          	slliw	a0,a0,0x18
    1c56:	4185551b          	sraiw	a0,a0,0x18
    1c5a:	00675593          	srli	a1,a4,0x6
    1c5e:	8985                	andi	a1,a1,1
    1c60:	03f77713          	andi	a4,a4,63
    1c64:	08070713          	addi	a4,a4,128
    1c68:	20059263          	bnez	a1,1e6c <permute_vnx64qi+0xb2c>
    1c6c:	970a                	add	a4,a4,sp
    1c6e:	0d074583          	lbu	a1,208(a4)
    1c72:	03e60703          	lb	a4,62(a2)
    1c76:	0185959b          	slliw	a1,a1,0x18
    1c7a:	4185d59b          	sraiw	a1,a1,0x18
    1c7e:	00675d93          	srli	s11,a4,0x6
    1c82:	001dfd93          	andi	s11,s11,1
    1c86:	03f77713          	andi	a4,a4,63
    1c8a:	08070713          	addi	a4,a4,128
    1c8e:	1c0d9b63          	bnez	s11,1e64 <permute_vnx64qi+0xb24>
    1c92:	970a                	add	a4,a4,sp
    1c94:	0d074d83          	lbu	s11,208(a4)
    1c98:	03f60703          	lb	a4,63(a2)
    1c9c:	018d961b          	slliw	a2,s11,0x18
    1ca0:	4186561b          	sraiw	a2,a2,0x18
    1ca4:	00675d93          	srli	s11,a4,0x6
    1ca8:	001dfd93          	andi	s11,s11,1
    1cac:	03f77713          	andi	a4,a4,63
    1cb0:	08070713          	addi	a4,a4,128
    1cb4:	1a0d9463          	bnez	s11,1e5c <permute_vnx64qi+0xb1c>
    1cb8:	970a                	add	a4,a4,sp
    1cba:	0d074703          	lbu	a4,208(a4)
    1cbe:	8399                	srli	a5,a5,0x6
    1cc0:	0187171b          	slliw	a4,a4,0x18
    1cc4:	8b85                	andi	a5,a5,1
    1cc6:	4187571b          	sraiw	a4,a4,0x18
    1cca:	18079563          	bnez	a5,1e54 <permute_vnx64qi+0xb14>
    1cce:	14014783          	lbu	a5,320(sp)
    1cd2:	00f68023          	sb	a5,0(a3)
    1cd6:	67a2                	ld	a5,8(sp)
    1cd8:	00f680a3          	sb	a5,1(a3)
    1cdc:	67c2                	ld	a5,16(sp)
    1cde:	00f68123          	sb	a5,2(a3)
    1ce2:	67e2                	ld	a5,24(sp)
    1ce4:	00f681a3          	sb	a5,3(a3)
    1ce8:	7782                	ld	a5,32(sp)
    1cea:	00f68223          	sb	a5,4(a3)
    1cee:	77a2                	ld	a5,40(sp)
    1cf0:	00f682a3          	sb	a5,5(a3)
    1cf4:	77c2                	ld	a5,48(sp)
    1cf6:	00f68323          	sb	a5,6(a3)
    1cfa:	77e2                	ld	a5,56(sp)
    1cfc:	00f683a3          	sb	a5,7(a3)
    1d00:	6786                	ld	a5,64(sp)
    1d02:	00f68423          	sb	a5,8(a3)
    1d06:	67a6                	ld	a5,72(sp)
    1d08:	00f684a3          	sb	a5,9(a3)
    1d0c:	67c6                	ld	a5,80(sp)
    1d0e:	00f68523          	sb	a5,10(a3)
    1d12:	67e6                	ld	a5,88(sp)
    1d14:	00f685a3          	sb	a5,11(a3)
    1d18:	7786                	ld	a5,96(sp)
    1d1a:	00f68623          	sb	a5,12(a3)
    1d1e:	77a6                	ld	a5,104(sp)
    1d20:	00f686a3          	sb	a5,13(a3)
    1d24:	77c6                	ld	a5,112(sp)
    1d26:	00f68723          	sb	a5,14(a3)
    1d2a:	77e6                	ld	a5,120(sp)
    1d2c:	00f687a3          	sb	a5,15(a3)
    1d30:	678a                	ld	a5,128(sp)
    1d32:	00f68823          	sb	a5,16(a3)
    1d36:	67aa                	ld	a5,136(sp)
    1d38:	00f688a3          	sb	a5,17(a3)
    1d3c:	67ca                	ld	a5,144(sp)
    1d3e:	00f68923          	sb	a5,18(a3)
    1d42:	67ea                	ld	a5,152(sp)
    1d44:	00f689a3          	sb	a5,19(a3)
    1d48:	778a                	ld	a5,160(sp)
    1d4a:	00f68a23          	sb	a5,20(a3)
    1d4e:	77aa                	ld	a5,168(sp)
    1d50:	00f68aa3          	sb	a5,21(a3)
    1d54:	77ca                	ld	a5,176(sp)
    1d56:	00f68b23          	sb	a5,22(a3)
    1d5a:	77ea                	ld	a5,184(sp)
    1d5c:	00f68ba3          	sb	a5,23(a3)
    1d60:	678e                	ld	a5,192(sp)
    1d62:	00f68c23          	sb	a5,24(a3)
    1d66:	67ae                	ld	a5,200(sp)
    1d68:	00f68ca3          	sb	a5,25(a3)
    1d6c:	67ce                	ld	a5,208(sp)
    1d6e:	00f68d23          	sb	a5,26(a3)
    1d72:	67ee                	ld	a5,216(sp)
    1d74:	00f68da3          	sb	a5,27(a3)
    1d78:	778e                	ld	a5,224(sp)
    1d7a:	00f68e23          	sb	a5,28(a3)
    1d7e:	77ae                	ld	a5,232(sp)
    1d80:	00f68ea3          	sb	a5,29(a3)
    1d84:	77ce                	ld	a5,240(sp)
    1d86:	00f68f23          	sb	a5,30(a3)
    1d8a:	77ee                	ld	a5,248(sp)
    1d8c:	00f68fa3          	sb	a5,31(a3)
    1d90:	6792                	ld	a5,256(sp)
    1d92:	02f68023          	sb	a5,32(a3)
    1d96:	67b2                	ld	a5,264(sp)
    1d98:	03a68423          	sb	s10,40(a3)
    1d9c:	039684a3          	sb	s9,41(a3)
    1da0:	02f680a3          	sb	a5,33(a3)
    1da4:	67d2                	ld	a5,272(sp)
    1da6:	03868523          	sb	s8,42(a3)
    1daa:	037685a3          	sb	s7,43(a3)
    1dae:	02f68123          	sb	a5,34(a3)
    1db2:	67f2                	ld	a5,280(sp)
    1db4:	03668623          	sb	s6,44(a3)
    1db8:	035686a3          	sb	s5,45(a3)
    1dbc:	02f681a3          	sb	a5,35(a3)
    1dc0:	7792                	ld	a5,288(sp)
    1dc2:	03468723          	sb	s4,46(a3)
    1dc6:	033687a3          	sb	s3,47(a3)
    1dca:	02f68223          	sb	a5,36(a3)
    1dce:	77b2                	ld	a5,296(sp)
    1dd0:	03268823          	sb	s2,48(a3)
    1dd4:	029688a3          	sb	s1,49(a3)
    1dd8:	02f682a3          	sb	a5,37(a3)
    1ddc:	77d2                	ld	a5,304(sp)
    1dde:	02868923          	sb	s0,50(a3)
    1de2:	027689a3          	sb	t2,51(a3)
    1de6:	02f68323          	sb	a5,38(a3)
    1dea:	77f2                	ld	a5,312(sp)
    1dec:	02568a23          	sb	t0,52(a3)
    1df0:	03f68aa3          	sb	t6,53(a3)
    1df4:	02f683a3          	sb	a5,39(a3)
    1df8:	03e68b23          	sb	t5,54(a3)
    1dfc:	03d68ba3          	sb	t4,55(a3)
    1e00:	03c68c23          	sb	t3,56(a3)
    1e04:	02668ca3          	sb	t1,57(a3)
    1e08:	03168d23          	sb	a7,58(a3)
    1e0c:	22813403          	ld	s0,552(sp)
    1e10:	03068da3          	sb	a6,59(a3)
    1e14:	02a68e23          	sb	a0,60(a3)
    1e18:	02b68ea3          	sb	a1,61(a3)
    1e1c:	02c68f23          	sb	a2,62(a3)
    1e20:	02e68fa3          	sb	a4,63(a3)
    1e24:	22013483          	ld	s1,544(sp)
    1e28:	21813903          	ld	s2,536(sp)
    1e2c:	21013983          	ld	s3,528(sp)
    1e30:	20813a03          	ld	s4,520(sp)
    1e34:	20013a83          	ld	s5,512(sp)
    1e38:	7b7e                	ld	s6,504(sp)
    1e3a:	7bde                	ld	s7,496(sp)
    1e3c:	7c3e                	ld	s8,488(sp)
    1e3e:	7c9e                	ld	s9,480(sp)
    1e40:	6d7e                	ld	s10,472(sp)
    1e42:	6dde                	ld	s11,464(sp)
    1e44:	23010113          	addi	sp,sp,560
    1e48:	8082                	ret
    1e4a:	970a                	add	a4,a4,sp
    1e4c:	11074583          	lbu	a1,272(a4)
    1e50:	d64ff06f          	j	13b4 <permute_vnx64qi+0x74>
    1e54:	67b6                	ld	a5,328(sp)
    1e56:	fc07c783          	lbu	a5,-64(a5)
    1e5a:	bda5                	j	1cd2 <permute_vnx64qi+0x992>
    1e5c:	970a                	add	a4,a4,sp
    1e5e:	11074703          	lbu	a4,272(a4)
    1e62:	bdb1                	j	1cbe <permute_vnx64qi+0x97e>
    1e64:	970a                	add	a4,a4,sp
    1e66:	11074d83          	lbu	s11,272(a4)
    1e6a:	b53d                	j	1c98 <permute_vnx64qi+0x958>
    1e6c:	970a                	add	a4,a4,sp
    1e6e:	11074583          	lbu	a1,272(a4)
    1e72:	b501                	j	1c72 <permute_vnx64qi+0x932>
    1e74:	970a                	add	a4,a4,sp
    1e76:	11074503          	lbu	a0,272(a4)
    1e7a:	bbd1                	j	1c4e <permute_vnx64qi+0x90e>
    1e7c:	970a                	add	a4,a4,sp
    1e7e:	11074803          	lbu	a6,272(a4)
    1e82:	b365                	j	1c2a <permute_vnx64qi+0x8ea>
    1e84:	970a                	add	a4,a4,sp
    1e86:	11074883          	lbu	a7,272(a4)
    1e8a:	bbb5                	j	1c06 <permute_vnx64qi+0x8c6>
    1e8c:	970a                	add	a4,a4,sp
    1e8e:	11074303          	lbu	t1,272(a4)
    1e92:	bb81                	j	1be2 <permute_vnx64qi+0x8a2>
    1e94:	970a                	add	a4,a4,sp
    1e96:	11074e03          	lbu	t3,272(a4)
    1e9a:	b315                	j	1bbe <permute_vnx64qi+0x87e>
    1e9c:	970a                	add	a4,a4,sp
    1e9e:	11074e83          	lbu	t4,272(a4)
    1ea2:	b9e5                	j	1b9a <permute_vnx64qi+0x85a>
    1ea4:	970a                	add	a4,a4,sp
    1ea6:	11074f03          	lbu	t5,272(a4)
    1eaa:	b1f1                	j	1b76 <permute_vnx64qi+0x836>
    1eac:	970a                	add	a4,a4,sp
    1eae:	11074f83          	lbu	t6,272(a4)
    1eb2:	b145                	j	1b52 <permute_vnx64qi+0x812>
    1eb4:	970a                	add	a4,a4,sp
    1eb6:	11074283          	lbu	t0,272(a4)
    1eba:	b995                	j	1b2e <permute_vnx64qi+0x7ee>
    1ebc:	970a                	add	a4,a4,sp
    1ebe:	11074383          	lbu	t2,272(a4)
    1ec2:	b1a1                	j	1b0a <permute_vnx64qi+0x7ca>
    1ec4:	970a                	add	a4,a4,sp
    1ec6:	11074403          	lbu	s0,272(a4)
    1eca:	b931                	j	1ae6 <permute_vnx64qi+0x7a6>
    1ecc:	970a                	add	a4,a4,sp
    1ece:	11074483          	lbu	s1,272(a4)
    1ed2:	bec5                	j	1ac2 <permute_vnx64qi+0x782>
    1ed4:	970a                	add	a4,a4,sp
    1ed6:	11074903          	lbu	s2,272(a4)
    1eda:	b6d1                	j	1a9e <permute_vnx64qi+0x75e>
    1edc:	970a                	add	a4,a4,sp
    1ede:	11074983          	lbu	s3,272(a4)
    1ee2:	be61                	j	1a7a <permute_vnx64qi+0x73a>
    1ee4:	970a                	add	a4,a4,sp
    1ee6:	11074a03          	lbu	s4,272(a4)
    1eea:	b6b5                	j	1a56 <permute_vnx64qi+0x716>
    1eec:	970a                	add	a4,a4,sp
    1eee:	11074a83          	lbu	s5,272(a4)
    1ef2:	b681                	j	1a32 <permute_vnx64qi+0x6f2>
    1ef4:	970a                	add	a4,a4,sp
    1ef6:	11074b03          	lbu	s6,272(a4)
    1efa:	be11                	j	1a0e <permute_vnx64qi+0x6ce>
    1efc:	970a                	add	a4,a4,sp
    1efe:	11074b83          	lbu	s7,272(a4)
    1f02:	b4e5                	j	19ea <permute_vnx64qi+0x6aa>
    1f04:	970a                	add	a4,a4,sp
    1f06:	11074c03          	lbu	s8,272(a4)
    1f0a:	bc75                	j	19c6 <permute_vnx64qi+0x686>
    1f0c:	970a                	add	a4,a4,sp
    1f0e:	11074c83          	lbu	s9,272(a4)
    1f12:	bc41                	j	19a2 <permute_vnx64qi+0x662>
    1f14:	970a                	add	a4,a4,sp
    1f16:	11074d03          	lbu	s10,272(a4)
    1f1a:	b495                	j	197e <permute_vnx64qi+0x63e>
    1f1c:	970a                	add	a4,a4,sp
    1f1e:	11074583          	lbu	a1,272(a4)
    1f22:	bc1d                	j	1958 <permute_vnx64qi+0x618>
    1f24:	970a                	add	a4,a4,sp
    1f26:	11074583          	lbu	a1,272(a4)
    1f2a:	b421                	j	1932 <permute_vnx64qi+0x5f2>
    1f2c:	970a                	add	a4,a4,sp
    1f2e:	11074583          	lbu	a1,272(a4)
    1f32:	bae9                	j	190c <permute_vnx64qi+0x5cc>
    1f34:	970a                	add	a4,a4,sp
    1f36:	11074583          	lbu	a1,272(a4)
    1f3a:	b275                	j	18e6 <permute_vnx64qi+0x5a6>
    1f3c:	970a                	add	a4,a4,sp
    1f3e:	11074583          	lbu	a1,272(a4)
    1f42:	babd                	j	18c0 <permute_vnx64qi+0x580>
    1f44:	970a                	add	a4,a4,sp
    1f46:	11074583          	lbu	a1,272(a4)
    1f4a:	ba81                	j	189a <permute_vnx64qi+0x55a>
    1f4c:	970a                	add	a4,a4,sp
    1f4e:	11074583          	lbu	a1,272(a4)
    1f52:	b20d                	j	1874 <permute_vnx64qi+0x534>
    1f54:	970a                	add	a4,a4,sp
    1f56:	11074583          	lbu	a1,272(a4)
    1f5a:	b8d5                	j	184e <permute_vnx64qi+0x50e>
    1f5c:	970a                	add	a4,a4,sp
    1f5e:	11074583          	lbu	a1,272(a4)
    1f62:	b0d9                	j	1828 <permute_vnx64qi+0x4e8>
    1f64:	970a                	add	a4,a4,sp
    1f66:	11074583          	lbu	a1,272(a4)
    1f6a:	b861                	j	1802 <permute_vnx64qi+0x4c2>
    1f6c:	970a                	add	a4,a4,sp
    1f6e:	11074583          	lbu	a1,272(a4)
    1f72:	b0ad                	j	17dc <permute_vnx64qi+0x49c>
    1f74:	970a                	add	a4,a4,sp
    1f76:	11074583          	lbu	a1,272(a4)
    1f7a:	b835                	j	17b6 <permute_vnx64qi+0x476>
    1f7c:	970a                	add	a4,a4,sp
    1f7e:	11074583          	lbu	a1,272(a4)
    1f82:	b039                	j	1790 <permute_vnx64qi+0x450>
    1f84:	970a                	add	a4,a4,sp
    1f86:	11074583          	lbu	a1,272(a4)
    1f8a:	fe0ff06f          	j	176a <permute_vnx64qi+0x42a>
    1f8e:	970a                	add	a4,a4,sp
    1f90:	11074583          	lbu	a1,272(a4)
    1f94:	fb0ff06f          	j	1744 <permute_vnx64qi+0x404>
    1f98:	970a                	add	a4,a4,sp
    1f9a:	11074583          	lbu	a1,272(a4)
    1f9e:	f80ff06f          	j	171e <permute_vnx64qi+0x3de>
    1fa2:	970a                	add	a4,a4,sp
    1fa4:	11074583          	lbu	a1,272(a4)
    1fa8:	f50ff06f          	j	16f8 <permute_vnx64qi+0x3b8>
    1fac:	970a                	add	a4,a4,sp
    1fae:	11074583          	lbu	a1,272(a4)
    1fb2:	f20ff06f          	j	16d2 <permute_vnx64qi+0x392>
    1fb6:	970a                	add	a4,a4,sp
    1fb8:	11074583          	lbu	a1,272(a4)
    1fbc:	ef0ff06f          	j	16ac <permute_vnx64qi+0x36c>
    1fc0:	970a                	add	a4,a4,sp
    1fc2:	11074583          	lbu	a1,272(a4)
    1fc6:	ec0ff06f          	j	1686 <permute_vnx64qi+0x346>
    1fca:	970a                	add	a4,a4,sp
    1fcc:	11074583          	lbu	a1,272(a4)
    1fd0:	e90ff06f          	j	1660 <permute_vnx64qi+0x320>
    1fd4:	970a                	add	a4,a4,sp
    1fd6:	11074583          	lbu	a1,272(a4)
    1fda:	e60ff06f          	j	163a <permute_vnx64qi+0x2fa>
    1fde:	970a                	add	a4,a4,sp
    1fe0:	11074583          	lbu	a1,272(a4)
    1fe4:	e30ff06f          	j	1614 <permute_vnx64qi+0x2d4>
    1fe8:	970a                	add	a4,a4,sp
    1fea:	11074583          	lbu	a1,272(a4)
    1fee:	e00ff06f          	j	15ee <permute_vnx64qi+0x2ae>
    1ff2:	970a                	add	a4,a4,sp
    1ff4:	11074583          	lbu	a1,272(a4)
    1ff8:	dd0ff06f          	j	15c8 <permute_vnx64qi+0x288>
    1ffc:	970a                	add	a4,a4,sp
    1ffe:	11074583          	lbu	a1,272(a4)
    2002:	da0ff06f          	j	15a2 <permute_vnx64qi+0x262>
    2006:	970a                	add	a4,a4,sp
    2008:	11074583          	lbu	a1,272(a4)
    200c:	d70ff06f          	j	157c <permute_vnx64qi+0x23c>
    2010:	970a                	add	a4,a4,sp
    2012:	11074583          	lbu	a1,272(a4)
    2016:	d40ff06f          	j	1556 <permute_vnx64qi+0x216>
    201a:	970a                	add	a4,a4,sp
    201c:	11074583          	lbu	a1,272(a4)
    2020:	d10ff06f          	j	1530 <permute_vnx64qi+0x1f0>
    2024:	970a                	add	a4,a4,sp
    2026:	11074583          	lbu	a1,272(a4)
    202a:	ce0ff06f          	j	150a <permute_vnx64qi+0x1ca>
    202e:	970a                	add	a4,a4,sp
    2030:	11074583          	lbu	a1,272(a4)
    2034:	cb0ff06f          	j	14e4 <permute_vnx64qi+0x1a4>
    2038:	970a                	add	a4,a4,sp
    203a:	11074583          	lbu	a1,272(a4)
    203e:	c80ff06f          	j	14be <permute_vnx64qi+0x17e>
    2042:	970a                	add	a4,a4,sp
    2044:	11074583          	lbu	a1,272(a4)
    2048:	c50ff06f          	j	1498 <permute_vnx64qi+0x158>
    204c:	970a                	add	a4,a4,sp
    204e:	11074583          	lbu	a1,272(a4)
    2052:	c20ff06f          	j	1472 <permute_vnx64qi+0x132>
    2056:	970a                	add	a4,a4,sp
    2058:	11074583          	lbu	a1,272(a4)
    205c:	bf0ff06f          	j	144c <permute_vnx64qi+0x10c>
    2060:	970a                	add	a4,a4,sp
    2062:	11074583          	lbu	a1,272(a4)
    2066:	bc0ff06f          	j	1426 <permute_vnx64qi+0xe6>
    206a:	970a                	add	a4,a4,sp
    206c:	11074583          	lbu	a1,272(a4)
    2070:	b90ff06f          	j	1400 <permute_vnx64qi+0xc0>
    2074:	970a                	add	a4,a4,sp
    2076:	11074583          	lbu	a1,272(a4)
    207a:	b60ff06f          	j	13da <permute_vnx64qi+0x9a>

000000000000207e <permute_vnx128qi>:
    207e:	b5010113          	addi	sp,sp,-1200
    2082:	4a813423          	sd	s0,1192(sp)
    2086:	4a913023          	sd	s1,1184(sp)
    208a:	49213c23          	sd	s2,1176(sp)
    208e:	49313823          	sd	s3,1168(sp)
    2092:	49413423          	sd	s4,1160(sp)
    2096:	49513023          	sd	s5,1152(sp)
    209a:	47613c23          	sd	s6,1144(sp)
    209e:	47713823          	sd	s7,1136(sp)
    20a2:	47813423          	sd	s8,1128(sp)
    20a6:	47913023          	sd	s9,1120(sp)
    20aa:	45a13c23          	sd	s10,1112(sp)
    20ae:	45b13823          	sd	s11,1104(sp)
    20b2:	cdb87057          	vsetivli	zero,16,e64,m8,ta,ma
    20b6:	02057807          	vle64.v	v16,(a0)
    20ba:	0e9c                	addi	a5,sp,848
    20bc:	0205f407          	vle64.v	v8,(a1)
    20c0:	0e8c                	addi	a1,sp,848
    20c2:	0207f827          	vse64.v	v16,(a5)
    20c6:	00060783          	lb	a5,0(a2)
    20ca:	00160703          	lb	a4,1(a2)
    20ce:	e43e                	sd	a5,8(sp)
    20d0:	07f7f793          	andi	a5,a5,127
    20d4:	10078793          	addi	a5,a5,256
    20d8:	97ae                	add	a5,a5,a1
    20da:	34f13423          	sd	a5,840(sp)
    20de:	f0078783          	lb	a5,-256(a5)
    20e2:	34f13023          	sd	a5,832(sp)
    20e6:	0f9c                	addi	a5,sp,976
    20e8:	0207f427          	vse64.v	v8,(a5)
    20ec:	07f77793          	andi	a5,a4,127
    20f0:	10078793          	addi	a5,a5,256
    20f4:	00075463          	bgez	a4,20fc <permute_vnx128qi+0x7e>
    20f8:	54a0106f          	j	3642 <permute_vnx128qi+0x15c4>
    20fc:	97ae                	add	a5,a5,a1
    20fe:	f007c783          	lbu	a5,-256(a5)
    2102:	00260703          	lb	a4,2(a2)
    2106:	0187979b          	slliw	a5,a5,0x18
    210a:	4187d79b          	sraiw	a5,a5,0x18
    210e:	e83e                	sd	a5,16(sp)
    2110:	07f77793          	andi	a5,a4,127
    2114:	10078793          	addi	a5,a5,256
    2118:	00075463          	bgez	a4,2120 <permute_vnx128qi+0xa2>
    211c:	54a0106f          	j	3666 <permute_vnx128qi+0x15e8>
    2120:	978a                	add	a5,a5,sp
    2122:	2507c783          	lbu	a5,592(a5)
    2126:	00360703          	lb	a4,3(a2)
    212a:	0187979b          	slliw	a5,a5,0x18
    212e:	4187d79b          	sraiw	a5,a5,0x18
    2132:	ec3e                	sd	a5,24(sp)
    2134:	07f77793          	andi	a5,a4,127
    2138:	10078793          	addi	a5,a5,256
    213c:	00075463          	bgez	a4,2144 <permute_vnx128qi+0xc6>
    2140:	54a0106f          	j	368a <permute_vnx128qi+0x160c>
    2144:	978a                	add	a5,a5,sp
    2146:	2507c783          	lbu	a5,592(a5)
    214a:	00460703          	lb	a4,4(a2)
    214e:	0187979b          	slliw	a5,a5,0x18
    2152:	4187d79b          	sraiw	a5,a5,0x18
    2156:	f03e                	sd	a5,32(sp)
    2158:	07f77793          	andi	a5,a4,127
    215c:	10078793          	addi	a5,a5,256
    2160:	00075463          	bgez	a4,2168 <permute_vnx128qi+0xea>
    2164:	54a0106f          	j	36ae <permute_vnx128qi+0x1630>
    2168:	978a                	add	a5,a5,sp
    216a:	2507c783          	lbu	a5,592(a5)
    216e:	00560703          	lb	a4,5(a2)
    2172:	0187979b          	slliw	a5,a5,0x18
    2176:	4187d79b          	sraiw	a5,a5,0x18
    217a:	f43e                	sd	a5,40(sp)
    217c:	07f77793          	andi	a5,a4,127
    2180:	10078793          	addi	a5,a5,256
    2184:	00075463          	bgez	a4,218c <permute_vnx128qi+0x10e>
    2188:	54a0106f          	j	36d2 <permute_vnx128qi+0x1654>
    218c:	978a                	add	a5,a5,sp
    218e:	2507c783          	lbu	a5,592(a5)
    2192:	00660703          	lb	a4,6(a2)
    2196:	0187979b          	slliw	a5,a5,0x18
    219a:	4187d79b          	sraiw	a5,a5,0x18
    219e:	f83e                	sd	a5,48(sp)
    21a0:	07f77793          	andi	a5,a4,127
    21a4:	10078793          	addi	a5,a5,256
    21a8:	00075463          	bgez	a4,21b0 <permute_vnx128qi+0x132>
    21ac:	54a0106f          	j	36f6 <permute_vnx128qi+0x1678>
    21b0:	978a                	add	a5,a5,sp
    21b2:	2507c783          	lbu	a5,592(a5)
    21b6:	00760703          	lb	a4,7(a2)
    21ba:	0187979b          	slliw	a5,a5,0x18
    21be:	4187d79b          	sraiw	a5,a5,0x18
    21c2:	fc3e                	sd	a5,56(sp)
    21c4:	07f77793          	andi	a5,a4,127
    21c8:	10078793          	addi	a5,a5,256
    21cc:	00075463          	bgez	a4,21d4 <permute_vnx128qi+0x156>
    21d0:	54a0106f          	j	371a <permute_vnx128qi+0x169c>
    21d4:	978a                	add	a5,a5,sp
    21d6:	2507c783          	lbu	a5,592(a5)
    21da:	00860703          	lb	a4,8(a2)
    21de:	0187979b          	slliw	a5,a5,0x18
    21e2:	4187d79b          	sraiw	a5,a5,0x18
    21e6:	e0be                	sd	a5,64(sp)
    21e8:	07f77793          	andi	a5,a4,127
    21ec:	10078793          	addi	a5,a5,256
    21f0:	00075463          	bgez	a4,21f8 <permute_vnx128qi+0x17a>
    21f4:	54a0106f          	j	373e <permute_vnx128qi+0x16c0>
    21f8:	978a                	add	a5,a5,sp
    21fa:	2507c783          	lbu	a5,592(a5)
    21fe:	00960703          	lb	a4,9(a2)
    2202:	0187979b          	slliw	a5,a5,0x18
    2206:	4187d79b          	sraiw	a5,a5,0x18
    220a:	e4be                	sd	a5,72(sp)
    220c:	07f77793          	andi	a5,a4,127
    2210:	10078793          	addi	a5,a5,256
    2214:	00075463          	bgez	a4,221c <permute_vnx128qi+0x19e>
    2218:	54a0106f          	j	3762 <permute_vnx128qi+0x16e4>
    221c:	978a                	add	a5,a5,sp
    221e:	2507c783          	lbu	a5,592(a5)
    2222:	00a60703          	lb	a4,10(a2)
    2226:	0187979b          	slliw	a5,a5,0x18
    222a:	4187d79b          	sraiw	a5,a5,0x18
    222e:	e8be                	sd	a5,80(sp)
    2230:	07f77793          	andi	a5,a4,127
    2234:	10078793          	addi	a5,a5,256
    2238:	00075463          	bgez	a4,2240 <permute_vnx128qi+0x1c2>
    223c:	54a0106f          	j	3786 <permute_vnx128qi+0x1708>
    2240:	978a                	add	a5,a5,sp
    2242:	2507c783          	lbu	a5,592(a5)
    2246:	00b60703          	lb	a4,11(a2)
    224a:	0187979b          	slliw	a5,a5,0x18
    224e:	4187d79b          	sraiw	a5,a5,0x18
    2252:	ecbe                	sd	a5,88(sp)
    2254:	07f77793          	andi	a5,a4,127
    2258:	10078793          	addi	a5,a5,256
    225c:	00075463          	bgez	a4,2264 <permute_vnx128qi+0x1e6>
    2260:	54a0106f          	j	37aa <permute_vnx128qi+0x172c>
    2264:	978a                	add	a5,a5,sp
    2266:	2507c783          	lbu	a5,592(a5)
    226a:	00c60703          	lb	a4,12(a2)
    226e:	0187979b          	slliw	a5,a5,0x18
    2272:	4187d79b          	sraiw	a5,a5,0x18
    2276:	f0be                	sd	a5,96(sp)
    2278:	07f77793          	andi	a5,a4,127
    227c:	10078793          	addi	a5,a5,256
    2280:	00075463          	bgez	a4,2288 <permute_vnx128qi+0x20a>
    2284:	54a0106f          	j	37ce <permute_vnx128qi+0x1750>
    2288:	978a                	add	a5,a5,sp
    228a:	2507c783          	lbu	a5,592(a5)
    228e:	00d60703          	lb	a4,13(a2)
    2292:	0187979b          	slliw	a5,a5,0x18
    2296:	4187d79b          	sraiw	a5,a5,0x18
    229a:	f4be                	sd	a5,104(sp)
    229c:	07f77793          	andi	a5,a4,127
    22a0:	10078793          	addi	a5,a5,256
    22a4:	00075463          	bgez	a4,22ac <permute_vnx128qi+0x22e>
    22a8:	54a0106f          	j	37f2 <permute_vnx128qi+0x1774>
    22ac:	978a                	add	a5,a5,sp
    22ae:	2507c783          	lbu	a5,592(a5)
    22b2:	00e60703          	lb	a4,14(a2)
    22b6:	0187979b          	slliw	a5,a5,0x18
    22ba:	4187d79b          	sraiw	a5,a5,0x18
    22be:	f8be                	sd	a5,112(sp)
    22c0:	07f77793          	andi	a5,a4,127
    22c4:	10078793          	addi	a5,a5,256
    22c8:	00075463          	bgez	a4,22d0 <permute_vnx128qi+0x252>
    22cc:	54a0106f          	j	3816 <permute_vnx128qi+0x1798>
    22d0:	978a                	add	a5,a5,sp
    22d2:	2507c783          	lbu	a5,592(a5)
    22d6:	00f60703          	lb	a4,15(a2)
    22da:	0187979b          	slliw	a5,a5,0x18
    22de:	4187d79b          	sraiw	a5,a5,0x18
    22e2:	fcbe                	sd	a5,120(sp)
    22e4:	07f77793          	andi	a5,a4,127
    22e8:	10078793          	addi	a5,a5,256
    22ec:	00075463          	bgez	a4,22f4 <permute_vnx128qi+0x276>
    22f0:	54a0106f          	j	383a <permute_vnx128qi+0x17bc>
    22f4:	978a                	add	a5,a5,sp
    22f6:	2507c783          	lbu	a5,592(a5)
    22fa:	01060703          	lb	a4,16(a2)
    22fe:	0187979b          	slliw	a5,a5,0x18
    2302:	4187d79b          	sraiw	a5,a5,0x18
    2306:	e13e                	sd	a5,128(sp)
    2308:	07f77793          	andi	a5,a4,127
    230c:	10078793          	addi	a5,a5,256
    2310:	00075463          	bgez	a4,2318 <permute_vnx128qi+0x29a>
    2314:	54a0106f          	j	385e <permute_vnx128qi+0x17e0>
    2318:	978a                	add	a5,a5,sp
    231a:	2507c783          	lbu	a5,592(a5)
    231e:	01160703          	lb	a4,17(a2)
    2322:	0187979b          	slliw	a5,a5,0x18
    2326:	4187d79b          	sraiw	a5,a5,0x18
    232a:	e53e                	sd	a5,136(sp)
    232c:	07f77793          	andi	a5,a4,127
    2330:	10078793          	addi	a5,a5,256
    2334:	00075463          	bgez	a4,233c <permute_vnx128qi+0x2be>
    2338:	54a0106f          	j	3882 <permute_vnx128qi+0x1804>
    233c:	978a                	add	a5,a5,sp
    233e:	2507c783          	lbu	a5,592(a5)
    2342:	01260703          	lb	a4,18(a2)
    2346:	0187979b          	slliw	a5,a5,0x18
    234a:	4187d79b          	sraiw	a5,a5,0x18
    234e:	e93e                	sd	a5,144(sp)
    2350:	07f77793          	andi	a5,a4,127
    2354:	10078793          	addi	a5,a5,256
    2358:	00075463          	bgez	a4,2360 <permute_vnx128qi+0x2e2>
    235c:	54a0106f          	j	38a6 <permute_vnx128qi+0x1828>
    2360:	978a                	add	a5,a5,sp
    2362:	2507c783          	lbu	a5,592(a5)
    2366:	01360703          	lb	a4,19(a2)
    236a:	0187979b          	slliw	a5,a5,0x18
    236e:	4187d79b          	sraiw	a5,a5,0x18
    2372:	ed3e                	sd	a5,152(sp)
    2374:	07f77793          	andi	a5,a4,127
    2378:	10078793          	addi	a5,a5,256
    237c:	00075463          	bgez	a4,2384 <permute_vnx128qi+0x306>
    2380:	54a0106f          	j	38ca <permute_vnx128qi+0x184c>
    2384:	978a                	add	a5,a5,sp
    2386:	2507c783          	lbu	a5,592(a5)
    238a:	01460703          	lb	a4,20(a2)
    238e:	0187979b          	slliw	a5,a5,0x18
    2392:	4187d79b          	sraiw	a5,a5,0x18
    2396:	f13e                	sd	a5,160(sp)
    2398:	07f77793          	andi	a5,a4,127
    239c:	10078793          	addi	a5,a5,256
    23a0:	00075463          	bgez	a4,23a8 <permute_vnx128qi+0x32a>
    23a4:	54a0106f          	j	38ee <permute_vnx128qi+0x1870>
    23a8:	978a                	add	a5,a5,sp
    23aa:	2507c783          	lbu	a5,592(a5)
    23ae:	01560703          	lb	a4,21(a2)
    23b2:	0187979b          	slliw	a5,a5,0x18
    23b6:	4187d79b          	sraiw	a5,a5,0x18
    23ba:	f53e                	sd	a5,168(sp)
    23bc:	07f77793          	andi	a5,a4,127
    23c0:	10078793          	addi	a5,a5,256
    23c4:	00075463          	bgez	a4,23cc <permute_vnx128qi+0x34e>
    23c8:	54a0106f          	j	3912 <permute_vnx128qi+0x1894>
    23cc:	978a                	add	a5,a5,sp
    23ce:	2507c783          	lbu	a5,592(a5)
    23d2:	01660703          	lb	a4,22(a2)
    23d6:	0187979b          	slliw	a5,a5,0x18
    23da:	4187d79b          	sraiw	a5,a5,0x18
    23de:	f93e                	sd	a5,176(sp)
    23e0:	07f77793          	andi	a5,a4,127
    23e4:	10078793          	addi	a5,a5,256
    23e8:	00075463          	bgez	a4,23f0 <permute_vnx128qi+0x372>
    23ec:	54a0106f          	j	3936 <permute_vnx128qi+0x18b8>
    23f0:	978a                	add	a5,a5,sp
    23f2:	2507c783          	lbu	a5,592(a5)
    23f6:	01760703          	lb	a4,23(a2)
    23fa:	0187979b          	slliw	a5,a5,0x18
    23fe:	4187d79b          	sraiw	a5,a5,0x18
    2402:	fd3e                	sd	a5,184(sp)
    2404:	07f77793          	andi	a5,a4,127
    2408:	10078793          	addi	a5,a5,256
    240c:	00075463          	bgez	a4,2414 <permute_vnx128qi+0x396>
    2410:	54a0106f          	j	395a <permute_vnx128qi+0x18dc>
    2414:	978a                	add	a5,a5,sp
    2416:	2507c783          	lbu	a5,592(a5)
    241a:	01860703          	lb	a4,24(a2)
    241e:	0187979b          	slliw	a5,a5,0x18
    2422:	4187d79b          	sraiw	a5,a5,0x18
    2426:	e1be                	sd	a5,192(sp)
    2428:	07f77793          	andi	a5,a4,127
    242c:	10078793          	addi	a5,a5,256
    2430:	00075463          	bgez	a4,2438 <permute_vnx128qi+0x3ba>
    2434:	54a0106f          	j	397e <permute_vnx128qi+0x1900>
    2438:	978a                	add	a5,a5,sp
    243a:	2507c783          	lbu	a5,592(a5)
    243e:	01960703          	lb	a4,25(a2)
    2442:	0187979b          	slliw	a5,a5,0x18
    2446:	4187d79b          	sraiw	a5,a5,0x18
    244a:	e5be                	sd	a5,200(sp)
    244c:	07f77793          	andi	a5,a4,127
    2450:	10078793          	addi	a5,a5,256
    2454:	00075463          	bgez	a4,245c <permute_vnx128qi+0x3de>
    2458:	54a0106f          	j	39a2 <permute_vnx128qi+0x1924>
    245c:	978a                	add	a5,a5,sp
    245e:	2507c783          	lbu	a5,592(a5)
    2462:	01a60703          	lb	a4,26(a2)
    2466:	0187979b          	slliw	a5,a5,0x18
    246a:	4187d79b          	sraiw	a5,a5,0x18
    246e:	e9be                	sd	a5,208(sp)
    2470:	07f77793          	andi	a5,a4,127
    2474:	10078793          	addi	a5,a5,256
    2478:	00075463          	bgez	a4,2480 <permute_vnx128qi+0x402>
    247c:	54a0106f          	j	39c6 <permute_vnx128qi+0x1948>
    2480:	978a                	add	a5,a5,sp
    2482:	2507c783          	lbu	a5,592(a5)
    2486:	01b60703          	lb	a4,27(a2)
    248a:	0187979b          	slliw	a5,a5,0x18
    248e:	4187d79b          	sraiw	a5,a5,0x18
    2492:	edbe                	sd	a5,216(sp)
    2494:	07f77793          	andi	a5,a4,127
    2498:	10078793          	addi	a5,a5,256
    249c:	00075463          	bgez	a4,24a4 <permute_vnx128qi+0x426>
    24a0:	54a0106f          	j	39ea <permute_vnx128qi+0x196c>
    24a4:	978a                	add	a5,a5,sp
    24a6:	2507c783          	lbu	a5,592(a5)
    24aa:	01c60703          	lb	a4,28(a2)
    24ae:	0187979b          	slliw	a5,a5,0x18
    24b2:	4187d79b          	sraiw	a5,a5,0x18
    24b6:	f1be                	sd	a5,224(sp)
    24b8:	07f77793          	andi	a5,a4,127
    24bc:	10078793          	addi	a5,a5,256
    24c0:	00075463          	bgez	a4,24c8 <permute_vnx128qi+0x44a>
    24c4:	54a0106f          	j	3a0e <permute_vnx128qi+0x1990>
    24c8:	978a                	add	a5,a5,sp
    24ca:	2507c783          	lbu	a5,592(a5)
    24ce:	01d60703          	lb	a4,29(a2)
    24d2:	0187979b          	slliw	a5,a5,0x18
    24d6:	4187d79b          	sraiw	a5,a5,0x18
    24da:	f5be                	sd	a5,232(sp)
    24dc:	07f77793          	andi	a5,a4,127
    24e0:	10078793          	addi	a5,a5,256
    24e4:	00075463          	bgez	a4,24ec <permute_vnx128qi+0x46e>
    24e8:	54a0106f          	j	3a32 <permute_vnx128qi+0x19b4>
    24ec:	978a                	add	a5,a5,sp
    24ee:	2507c783          	lbu	a5,592(a5)
    24f2:	01e60703          	lb	a4,30(a2)
    24f6:	0187979b          	slliw	a5,a5,0x18
    24fa:	4187d79b          	sraiw	a5,a5,0x18
    24fe:	f9be                	sd	a5,240(sp)
    2500:	07f77793          	andi	a5,a4,127
    2504:	10078793          	addi	a5,a5,256
    2508:	00075463          	bgez	a4,2510 <permute_vnx128qi+0x492>
    250c:	54a0106f          	j	3a56 <permute_vnx128qi+0x19d8>
    2510:	978a                	add	a5,a5,sp
    2512:	2507c783          	lbu	a5,592(a5)
    2516:	01f60703          	lb	a4,31(a2)
    251a:	0187979b          	slliw	a5,a5,0x18
    251e:	4187d79b          	sraiw	a5,a5,0x18
    2522:	fdbe                	sd	a5,248(sp)
    2524:	07f77793          	andi	a5,a4,127
    2528:	10078793          	addi	a5,a5,256
    252c:	00075463          	bgez	a4,2534 <permute_vnx128qi+0x4b6>
    2530:	54a0106f          	j	3a7a <permute_vnx128qi+0x19fc>
    2534:	978a                	add	a5,a5,sp
    2536:	2507c783          	lbu	a5,592(a5)
    253a:	02060703          	lb	a4,32(a2)
    253e:	0187979b          	slliw	a5,a5,0x18
    2542:	4187d79b          	sraiw	a5,a5,0x18
    2546:	e23e                	sd	a5,256(sp)
    2548:	07f77793          	andi	a5,a4,127
    254c:	10078793          	addi	a5,a5,256
    2550:	00075463          	bgez	a4,2558 <permute_vnx128qi+0x4da>
    2554:	54a0106f          	j	3a9e <permute_vnx128qi+0x1a20>
    2558:	978a                	add	a5,a5,sp
    255a:	2507c783          	lbu	a5,592(a5)
    255e:	02160703          	lb	a4,33(a2)
    2562:	0187979b          	slliw	a5,a5,0x18
    2566:	4187d79b          	sraiw	a5,a5,0x18
    256a:	e63e                	sd	a5,264(sp)
    256c:	07f77793          	andi	a5,a4,127
    2570:	10078793          	addi	a5,a5,256
    2574:	00075463          	bgez	a4,257c <permute_vnx128qi+0x4fe>
    2578:	54a0106f          	j	3ac2 <permute_vnx128qi+0x1a44>
    257c:	978a                	add	a5,a5,sp
    257e:	2507c783          	lbu	a5,592(a5)
    2582:	02260703          	lb	a4,34(a2)
    2586:	0187979b          	slliw	a5,a5,0x18
    258a:	4187d79b          	sraiw	a5,a5,0x18
    258e:	ea3e                	sd	a5,272(sp)
    2590:	07f77793          	andi	a5,a4,127
    2594:	10078793          	addi	a5,a5,256
    2598:	00075463          	bgez	a4,25a0 <permute_vnx128qi+0x522>
    259c:	54a0106f          	j	3ae6 <permute_vnx128qi+0x1a68>
    25a0:	978a                	add	a5,a5,sp
    25a2:	2507c783          	lbu	a5,592(a5)
    25a6:	02360703          	lb	a4,35(a2)
    25aa:	0187979b          	slliw	a5,a5,0x18
    25ae:	4187d79b          	sraiw	a5,a5,0x18
    25b2:	ee3e                	sd	a5,280(sp)
    25b4:	07f77793          	andi	a5,a4,127
    25b8:	10078793          	addi	a5,a5,256
    25bc:	00075463          	bgez	a4,25c4 <permute_vnx128qi+0x546>
    25c0:	54a0106f          	j	3b0a <permute_vnx128qi+0x1a8c>
    25c4:	978a                	add	a5,a5,sp
    25c6:	2507c783          	lbu	a5,592(a5)
    25ca:	02460703          	lb	a4,36(a2)
    25ce:	0187979b          	slliw	a5,a5,0x18
    25d2:	4187d79b          	sraiw	a5,a5,0x18
    25d6:	f23e                	sd	a5,288(sp)
    25d8:	07f77793          	andi	a5,a4,127
    25dc:	10078793          	addi	a5,a5,256
    25e0:	00075463          	bgez	a4,25e8 <permute_vnx128qi+0x56a>
    25e4:	54a0106f          	j	3b2e <permute_vnx128qi+0x1ab0>
    25e8:	978a                	add	a5,a5,sp
    25ea:	2507c783          	lbu	a5,592(a5)
    25ee:	02560703          	lb	a4,37(a2)
    25f2:	0187979b          	slliw	a5,a5,0x18
    25f6:	4187d79b          	sraiw	a5,a5,0x18
    25fa:	f63e                	sd	a5,296(sp)
    25fc:	07f77793          	andi	a5,a4,127
    2600:	10078793          	addi	a5,a5,256
    2604:	00075463          	bgez	a4,260c <permute_vnx128qi+0x58e>
    2608:	54a0106f          	j	3b52 <permute_vnx128qi+0x1ad4>
    260c:	978a                	add	a5,a5,sp
    260e:	2507c783          	lbu	a5,592(a5)
    2612:	02660703          	lb	a4,38(a2)
    2616:	0187979b          	slliw	a5,a5,0x18
    261a:	4187d79b          	sraiw	a5,a5,0x18
    261e:	fa3e                	sd	a5,304(sp)
    2620:	07f77793          	andi	a5,a4,127
    2624:	10078793          	addi	a5,a5,256
    2628:	00075463          	bgez	a4,2630 <permute_vnx128qi+0x5b2>
    262c:	54a0106f          	j	3b76 <permute_vnx128qi+0x1af8>
    2630:	978a                	add	a5,a5,sp
    2632:	2507c783          	lbu	a5,592(a5)
    2636:	02760703          	lb	a4,39(a2)
    263a:	0187979b          	slliw	a5,a5,0x18
    263e:	4187d79b          	sraiw	a5,a5,0x18
    2642:	fe3e                	sd	a5,312(sp)
    2644:	07f77793          	andi	a5,a4,127
    2648:	10078793          	addi	a5,a5,256
    264c:	00075463          	bgez	a4,2654 <permute_vnx128qi+0x5d6>
    2650:	54a0106f          	j	3b9a <permute_vnx128qi+0x1b1c>
    2654:	978a                	add	a5,a5,sp
    2656:	2507c783          	lbu	a5,592(a5)
    265a:	02860703          	lb	a4,40(a2)
    265e:	0187979b          	slliw	a5,a5,0x18
    2662:	4187d79b          	sraiw	a5,a5,0x18
    2666:	e2be                	sd	a5,320(sp)
    2668:	07f77793          	andi	a5,a4,127
    266c:	10078793          	addi	a5,a5,256
    2670:	00075463          	bgez	a4,2678 <permute_vnx128qi+0x5fa>
    2674:	54a0106f          	j	3bbe <permute_vnx128qi+0x1b40>
    2678:	978a                	add	a5,a5,sp
    267a:	2507c783          	lbu	a5,592(a5)
    267e:	02960703          	lb	a4,41(a2)
    2682:	0187979b          	slliw	a5,a5,0x18
    2686:	4187d79b          	sraiw	a5,a5,0x18
    268a:	e6be                	sd	a5,328(sp)
    268c:	07f77793          	andi	a5,a4,127
    2690:	10078793          	addi	a5,a5,256
    2694:	00075463          	bgez	a4,269c <permute_vnx128qi+0x61e>
    2698:	54a0106f          	j	3be2 <permute_vnx128qi+0x1b64>
    269c:	978a                	add	a5,a5,sp
    269e:	2507c783          	lbu	a5,592(a5)
    26a2:	02a60703          	lb	a4,42(a2)
    26a6:	0187979b          	slliw	a5,a5,0x18
    26aa:	4187d79b          	sraiw	a5,a5,0x18
    26ae:	eabe                	sd	a5,336(sp)
    26b0:	07f77793          	andi	a5,a4,127
    26b4:	10078793          	addi	a5,a5,256
    26b8:	00075463          	bgez	a4,26c0 <permute_vnx128qi+0x642>
    26bc:	54a0106f          	j	3c06 <permute_vnx128qi+0x1b88>
    26c0:	978a                	add	a5,a5,sp
    26c2:	2507c783          	lbu	a5,592(a5)
    26c6:	02b60703          	lb	a4,43(a2)
    26ca:	0187979b          	slliw	a5,a5,0x18
    26ce:	4187d79b          	sraiw	a5,a5,0x18
    26d2:	eebe                	sd	a5,344(sp)
    26d4:	07f77793          	andi	a5,a4,127
    26d8:	10078793          	addi	a5,a5,256
    26dc:	00075463          	bgez	a4,26e4 <permute_vnx128qi+0x666>
    26e0:	54a0106f          	j	3c2a <permute_vnx128qi+0x1bac>
    26e4:	978a                	add	a5,a5,sp
    26e6:	2507c783          	lbu	a5,592(a5)
    26ea:	02c60703          	lb	a4,44(a2)
    26ee:	0187979b          	slliw	a5,a5,0x18
    26f2:	4187d79b          	sraiw	a5,a5,0x18
    26f6:	f2be                	sd	a5,352(sp)
    26f8:	07f77793          	andi	a5,a4,127
    26fc:	10078793          	addi	a5,a5,256
    2700:	00075463          	bgez	a4,2708 <permute_vnx128qi+0x68a>
    2704:	54a0106f          	j	3c4e <permute_vnx128qi+0x1bd0>
    2708:	978a                	add	a5,a5,sp
    270a:	2507c783          	lbu	a5,592(a5)
    270e:	02d60703          	lb	a4,45(a2)
    2712:	0187979b          	slliw	a5,a5,0x18
    2716:	4187d79b          	sraiw	a5,a5,0x18
    271a:	f6be                	sd	a5,360(sp)
    271c:	07f77793          	andi	a5,a4,127
    2720:	10078793          	addi	a5,a5,256
    2724:	00075463          	bgez	a4,272c <permute_vnx128qi+0x6ae>
    2728:	54a0106f          	j	3c72 <permute_vnx128qi+0x1bf4>
    272c:	978a                	add	a5,a5,sp
    272e:	2507c783          	lbu	a5,592(a5)
    2732:	02e60703          	lb	a4,46(a2)
    2736:	0187979b          	slliw	a5,a5,0x18
    273a:	4187d79b          	sraiw	a5,a5,0x18
    273e:	fabe                	sd	a5,368(sp)
    2740:	07f77793          	andi	a5,a4,127
    2744:	10078793          	addi	a5,a5,256
    2748:	00075463          	bgez	a4,2750 <permute_vnx128qi+0x6d2>
    274c:	54a0106f          	j	3c96 <permute_vnx128qi+0x1c18>
    2750:	978a                	add	a5,a5,sp
    2752:	2507c783          	lbu	a5,592(a5)
    2756:	02f60703          	lb	a4,47(a2)
    275a:	0187979b          	slliw	a5,a5,0x18
    275e:	4187d79b          	sraiw	a5,a5,0x18
    2762:	febe                	sd	a5,376(sp)
    2764:	07f77793          	andi	a5,a4,127
    2768:	10078793          	addi	a5,a5,256
    276c:	00075463          	bgez	a4,2774 <permute_vnx128qi+0x6f6>
    2770:	54a0106f          	j	3cba <permute_vnx128qi+0x1c3c>
    2774:	978a                	add	a5,a5,sp
    2776:	2507c783          	lbu	a5,592(a5)
    277a:	03060703          	lb	a4,48(a2)
    277e:	0187979b          	slliw	a5,a5,0x18
    2782:	4187d79b          	sraiw	a5,a5,0x18
    2786:	e33e                	sd	a5,384(sp)
    2788:	07f77793          	andi	a5,a4,127
    278c:	10078793          	addi	a5,a5,256
    2790:	00075463          	bgez	a4,2798 <permute_vnx128qi+0x71a>
    2794:	54a0106f          	j	3cde <permute_vnx128qi+0x1c60>
    2798:	978a                	add	a5,a5,sp
    279a:	2507c783          	lbu	a5,592(a5)
    279e:	03160703          	lb	a4,49(a2)
    27a2:	0187979b          	slliw	a5,a5,0x18
    27a6:	4187d79b          	sraiw	a5,a5,0x18
    27aa:	e73e                	sd	a5,392(sp)
    27ac:	07f77793          	andi	a5,a4,127
    27b0:	10078793          	addi	a5,a5,256
    27b4:	00075463          	bgez	a4,27bc <permute_vnx128qi+0x73e>
    27b8:	54a0106f          	j	3d02 <permute_vnx128qi+0x1c84>
    27bc:	978a                	add	a5,a5,sp
    27be:	2507c783          	lbu	a5,592(a5)
    27c2:	03260703          	lb	a4,50(a2)
    27c6:	0187979b          	slliw	a5,a5,0x18
    27ca:	4187d79b          	sraiw	a5,a5,0x18
    27ce:	eb3e                	sd	a5,400(sp)
    27d0:	07f77793          	andi	a5,a4,127
    27d4:	10078793          	addi	a5,a5,256
    27d8:	00075463          	bgez	a4,27e0 <permute_vnx128qi+0x762>
    27dc:	54a0106f          	j	3d26 <permute_vnx128qi+0x1ca8>
    27e0:	978a                	add	a5,a5,sp
    27e2:	2507c783          	lbu	a5,592(a5)
    27e6:	03360703          	lb	a4,51(a2)
    27ea:	0187979b          	slliw	a5,a5,0x18
    27ee:	4187d79b          	sraiw	a5,a5,0x18
    27f2:	ef3e                	sd	a5,408(sp)
    27f4:	07f77793          	andi	a5,a4,127
    27f8:	10078793          	addi	a5,a5,256
    27fc:	00075463          	bgez	a4,2804 <permute_vnx128qi+0x786>
    2800:	54a0106f          	j	3d4a <permute_vnx128qi+0x1ccc>
    2804:	978a                	add	a5,a5,sp
    2806:	2507c783          	lbu	a5,592(a5)
    280a:	03460703          	lb	a4,52(a2)
    280e:	0187979b          	slliw	a5,a5,0x18
    2812:	4187d79b          	sraiw	a5,a5,0x18
    2816:	f33e                	sd	a5,416(sp)
    2818:	07f77793          	andi	a5,a4,127
    281c:	10078793          	addi	a5,a5,256
    2820:	00075463          	bgez	a4,2828 <permute_vnx128qi+0x7aa>
    2824:	54a0106f          	j	3d6e <permute_vnx128qi+0x1cf0>
    2828:	978a                	add	a5,a5,sp
    282a:	2507c783          	lbu	a5,592(a5)
    282e:	03560703          	lb	a4,53(a2)
    2832:	0187979b          	slliw	a5,a5,0x18
    2836:	4187d79b          	sraiw	a5,a5,0x18
    283a:	f73e                	sd	a5,424(sp)
    283c:	07f77793          	andi	a5,a4,127
    2840:	10078793          	addi	a5,a5,256
    2844:	00075463          	bgez	a4,284c <permute_vnx128qi+0x7ce>
    2848:	54a0106f          	j	3d92 <permute_vnx128qi+0x1d14>
    284c:	978a                	add	a5,a5,sp
    284e:	2507c783          	lbu	a5,592(a5)
    2852:	03660703          	lb	a4,54(a2)
    2856:	0187979b          	slliw	a5,a5,0x18
    285a:	4187d79b          	sraiw	a5,a5,0x18
    285e:	fb3e                	sd	a5,432(sp)
    2860:	07f77793          	andi	a5,a4,127
    2864:	10078793          	addi	a5,a5,256
    2868:	00075463          	bgez	a4,2870 <permute_vnx128qi+0x7f2>
    286c:	54a0106f          	j	3db6 <permute_vnx128qi+0x1d38>
    2870:	978a                	add	a5,a5,sp
    2872:	2507c783          	lbu	a5,592(a5)
    2876:	03760703          	lb	a4,55(a2)
    287a:	0187979b          	slliw	a5,a5,0x18
    287e:	4187d79b          	sraiw	a5,a5,0x18
    2882:	ff3e                	sd	a5,440(sp)
    2884:	07f77793          	andi	a5,a4,127
    2888:	10078793          	addi	a5,a5,256
    288c:	00075463          	bgez	a4,2894 <permute_vnx128qi+0x816>
    2890:	54a0106f          	j	3dda <permute_vnx128qi+0x1d5c>
    2894:	978a                	add	a5,a5,sp
    2896:	2507c783          	lbu	a5,592(a5)
    289a:	03860703          	lb	a4,56(a2)
    289e:	0187979b          	slliw	a5,a5,0x18
    28a2:	4187d79b          	sraiw	a5,a5,0x18
    28a6:	e3be                	sd	a5,448(sp)
    28a8:	07f77793          	andi	a5,a4,127
    28ac:	10078793          	addi	a5,a5,256
    28b0:	00075463          	bgez	a4,28b8 <permute_vnx128qi+0x83a>
    28b4:	54a0106f          	j	3dfe <permute_vnx128qi+0x1d80>
    28b8:	978a                	add	a5,a5,sp
    28ba:	2507c783          	lbu	a5,592(a5)
    28be:	03960703          	lb	a4,57(a2)
    28c2:	0187979b          	slliw	a5,a5,0x18
    28c6:	4187d79b          	sraiw	a5,a5,0x18
    28ca:	e7be                	sd	a5,456(sp)
    28cc:	07f77793          	andi	a5,a4,127
    28d0:	10078793          	addi	a5,a5,256
    28d4:	00075463          	bgez	a4,28dc <permute_vnx128qi+0x85e>
    28d8:	54a0106f          	j	3e22 <permute_vnx128qi+0x1da4>
    28dc:	978a                	add	a5,a5,sp
    28de:	2507c783          	lbu	a5,592(a5)
    28e2:	03a60703          	lb	a4,58(a2)
    28e6:	0187979b          	slliw	a5,a5,0x18
    28ea:	4187d79b          	sraiw	a5,a5,0x18
    28ee:	ebbe                	sd	a5,464(sp)
    28f0:	07f77793          	andi	a5,a4,127
    28f4:	10078793          	addi	a5,a5,256
    28f8:	00075463          	bgez	a4,2900 <permute_vnx128qi+0x882>
    28fc:	54a0106f          	j	3e46 <permute_vnx128qi+0x1dc8>
    2900:	978a                	add	a5,a5,sp
    2902:	2507c783          	lbu	a5,592(a5)
    2906:	03b60703          	lb	a4,59(a2)
    290a:	0187979b          	slliw	a5,a5,0x18
    290e:	4187d79b          	sraiw	a5,a5,0x18
    2912:	efbe                	sd	a5,472(sp)
    2914:	07f77793          	andi	a5,a4,127
    2918:	10078793          	addi	a5,a5,256
    291c:	00075463          	bgez	a4,2924 <permute_vnx128qi+0x8a6>
    2920:	54a0106f          	j	3e6a <permute_vnx128qi+0x1dec>
    2924:	978a                	add	a5,a5,sp
    2926:	2507c783          	lbu	a5,592(a5)
    292a:	03c60703          	lb	a4,60(a2)
    292e:	0187979b          	slliw	a5,a5,0x18
    2932:	4187d79b          	sraiw	a5,a5,0x18
    2936:	f3be                	sd	a5,480(sp)
    2938:	07f77793          	andi	a5,a4,127
    293c:	10078793          	addi	a5,a5,256
    2940:	00075463          	bgez	a4,2948 <permute_vnx128qi+0x8ca>
    2944:	54a0106f          	j	3e8e <permute_vnx128qi+0x1e10>
    2948:	978a                	add	a5,a5,sp
    294a:	2507c783          	lbu	a5,592(a5)
    294e:	03d60703          	lb	a4,61(a2)
    2952:	0187979b          	slliw	a5,a5,0x18
    2956:	4187d79b          	sraiw	a5,a5,0x18
    295a:	f7be                	sd	a5,488(sp)
    295c:	07f77793          	andi	a5,a4,127
    2960:	10078793          	addi	a5,a5,256
    2964:	00075463          	bgez	a4,296c <permute_vnx128qi+0x8ee>
    2968:	54a0106f          	j	3eb2 <permute_vnx128qi+0x1e34>
    296c:	978a                	add	a5,a5,sp
    296e:	2507c783          	lbu	a5,592(a5)
    2972:	03e60703          	lb	a4,62(a2)
    2976:	0187979b          	slliw	a5,a5,0x18
    297a:	4187d79b          	sraiw	a5,a5,0x18
    297e:	fbbe                	sd	a5,496(sp)
    2980:	07f77793          	andi	a5,a4,127
    2984:	10078793          	addi	a5,a5,256
    2988:	00075463          	bgez	a4,2990 <permute_vnx128qi+0x912>
    298c:	54a0106f          	j	3ed6 <permute_vnx128qi+0x1e58>
    2990:	978a                	add	a5,a5,sp
    2992:	2507c783          	lbu	a5,592(a5)
    2996:	03f60703          	lb	a4,63(a2)
    299a:	0187979b          	slliw	a5,a5,0x18
    299e:	4187d79b          	sraiw	a5,a5,0x18
    29a2:	ffbe                	sd	a5,504(sp)
    29a4:	07f77793          	andi	a5,a4,127
    29a8:	10078793          	addi	a5,a5,256
    29ac:	00075463          	bgez	a4,29b4 <permute_vnx128qi+0x936>
    29b0:	54a0106f          	j	3efa <permute_vnx128qi+0x1e7c>
    29b4:	978a                	add	a5,a5,sp
    29b6:	2507c783          	lbu	a5,592(a5)
    29ba:	04060703          	lb	a4,64(a2)
    29be:	0187979b          	slliw	a5,a5,0x18
    29c2:	4187d79b          	sraiw	a5,a5,0x18
    29c6:	20f13023          	sd	a5,512(sp)
    29ca:	07f77793          	andi	a5,a4,127
    29ce:	10078793          	addi	a5,a5,256
    29d2:	00075463          	bgez	a4,29da <permute_vnx128qi+0x95c>
    29d6:	54a0106f          	j	3f20 <permute_vnx128qi+0x1ea2>
    29da:	978a                	add	a5,a5,sp
    29dc:	2507c783          	lbu	a5,592(a5)
    29e0:	04160703          	lb	a4,65(a2)
    29e4:	0187979b          	slliw	a5,a5,0x18
    29e8:	4187d79b          	sraiw	a5,a5,0x18
    29ec:	20f13423          	sd	a5,520(sp)
    29f0:	07f77793          	andi	a5,a4,127
    29f4:	10078793          	addi	a5,a5,256
    29f8:	00075463          	bgez	a4,2a00 <permute_vnx128qi+0x982>
    29fc:	54a0106f          	j	3f46 <permute_vnx128qi+0x1ec8>
    2a00:	978a                	add	a5,a5,sp
    2a02:	2507c783          	lbu	a5,592(a5)
    2a06:	04260703          	lb	a4,66(a2)
    2a0a:	0187979b          	slliw	a5,a5,0x18
    2a0e:	4187d79b          	sraiw	a5,a5,0x18
    2a12:	20f13823          	sd	a5,528(sp)
    2a16:	07f77793          	andi	a5,a4,127
    2a1a:	10078793          	addi	a5,a5,256
    2a1e:	00075463          	bgez	a4,2a26 <permute_vnx128qi+0x9a8>
    2a22:	54a0106f          	j	3f6c <permute_vnx128qi+0x1eee>
    2a26:	978a                	add	a5,a5,sp
    2a28:	2507c783          	lbu	a5,592(a5)
    2a2c:	04360703          	lb	a4,67(a2)
    2a30:	0187979b          	slliw	a5,a5,0x18
    2a34:	4187d79b          	sraiw	a5,a5,0x18
    2a38:	20f13c23          	sd	a5,536(sp)
    2a3c:	07f77793          	andi	a5,a4,127
    2a40:	10078793          	addi	a5,a5,256
    2a44:	00075463          	bgez	a4,2a4c <permute_vnx128qi+0x9ce>
    2a48:	54a0106f          	j	3f92 <permute_vnx128qi+0x1f14>
    2a4c:	978a                	add	a5,a5,sp
    2a4e:	2507c783          	lbu	a5,592(a5)
    2a52:	04460703          	lb	a4,68(a2)
    2a56:	0187979b          	slliw	a5,a5,0x18
    2a5a:	4187d79b          	sraiw	a5,a5,0x18
    2a5e:	22f13023          	sd	a5,544(sp)
    2a62:	07f77793          	andi	a5,a4,127
    2a66:	10078793          	addi	a5,a5,256
    2a6a:	00075463          	bgez	a4,2a72 <permute_vnx128qi+0x9f4>
    2a6e:	54a0106f          	j	3fb8 <permute_vnx128qi+0x1f3a>
    2a72:	978a                	add	a5,a5,sp
    2a74:	2507c783          	lbu	a5,592(a5)
    2a78:	04560703          	lb	a4,69(a2)
    2a7c:	0187979b          	slliw	a5,a5,0x18
    2a80:	4187d79b          	sraiw	a5,a5,0x18
    2a84:	22f13423          	sd	a5,552(sp)
    2a88:	07f77793          	andi	a5,a4,127
    2a8c:	10078793          	addi	a5,a5,256
    2a90:	00075463          	bgez	a4,2a98 <permute_vnx128qi+0xa1a>
    2a94:	54a0106f          	j	3fde <permute_vnx128qi+0x1f60>
    2a98:	978a                	add	a5,a5,sp
    2a9a:	2507c783          	lbu	a5,592(a5)
    2a9e:	04660703          	lb	a4,70(a2)
    2aa2:	0187979b          	slliw	a5,a5,0x18
    2aa6:	4187d79b          	sraiw	a5,a5,0x18
    2aaa:	22f13823          	sd	a5,560(sp)
    2aae:	07f77793          	andi	a5,a4,127
    2ab2:	10078793          	addi	a5,a5,256
    2ab6:	00075463          	bgez	a4,2abe <permute_vnx128qi+0xa40>
    2aba:	54a0106f          	j	4004 <permute_vnx128qi+0x1f86>
    2abe:	978a                	add	a5,a5,sp
    2ac0:	2507c783          	lbu	a5,592(a5)
    2ac4:	04760703          	lb	a4,71(a2)
    2ac8:	0187979b          	slliw	a5,a5,0x18
    2acc:	4187d79b          	sraiw	a5,a5,0x18
    2ad0:	22f13c23          	sd	a5,568(sp)
    2ad4:	07f77793          	andi	a5,a4,127
    2ad8:	10078793          	addi	a5,a5,256
    2adc:	00075463          	bgez	a4,2ae4 <permute_vnx128qi+0xa66>
    2ae0:	54a0106f          	j	402a <permute_vnx128qi+0x1fac>
    2ae4:	978a                	add	a5,a5,sp
    2ae6:	2507c783          	lbu	a5,592(a5)
    2aea:	04860703          	lb	a4,72(a2)
    2aee:	0187979b          	slliw	a5,a5,0x18
    2af2:	4187d79b          	sraiw	a5,a5,0x18
    2af6:	24f13023          	sd	a5,576(sp)
    2afa:	07f77793          	andi	a5,a4,127
    2afe:	10078793          	addi	a5,a5,256
    2b02:	00075463          	bgez	a4,2b0a <permute_vnx128qi+0xa8c>
    2b06:	54a0106f          	j	4050 <permute_vnx128qi+0x1fd2>
    2b0a:	978a                	add	a5,a5,sp
    2b0c:	2507c783          	lbu	a5,592(a5)
    2b10:	04960703          	lb	a4,73(a2)
    2b14:	0187979b          	slliw	a5,a5,0x18
    2b18:	4187d79b          	sraiw	a5,a5,0x18
    2b1c:	24f13423          	sd	a5,584(sp)
    2b20:	07f77793          	andi	a5,a4,127
    2b24:	10078793          	addi	a5,a5,256
    2b28:	00075463          	bgez	a4,2b30 <permute_vnx128qi+0xab2>
    2b2c:	54a0106f          	j	4076 <permute_vnx128qi+0x1ff8>
    2b30:	978a                	add	a5,a5,sp
    2b32:	2507c783          	lbu	a5,592(a5)
    2b36:	04a60703          	lb	a4,74(a2)
    2b3a:	0187979b          	slliw	a5,a5,0x18
    2b3e:	4187d79b          	sraiw	a5,a5,0x18
    2b42:	24f13823          	sd	a5,592(sp)
    2b46:	07f77793          	andi	a5,a4,127
    2b4a:	10078793          	addi	a5,a5,256
    2b4e:	00075463          	bgez	a4,2b56 <permute_vnx128qi+0xad8>
    2b52:	54a0106f          	j	409c <permute_vnx128qi+0x201e>
    2b56:	978a                	add	a5,a5,sp
    2b58:	2507c783          	lbu	a5,592(a5)
    2b5c:	04b60703          	lb	a4,75(a2)
    2b60:	0187979b          	slliw	a5,a5,0x18
    2b64:	4187d79b          	sraiw	a5,a5,0x18
    2b68:	24f13c23          	sd	a5,600(sp)
    2b6c:	07f77793          	andi	a5,a4,127
    2b70:	10078793          	addi	a5,a5,256
    2b74:	00075463          	bgez	a4,2b7c <permute_vnx128qi+0xafe>
    2b78:	54a0106f          	j	40c2 <permute_vnx128qi+0x2044>
    2b7c:	978a                	add	a5,a5,sp
    2b7e:	2507c783          	lbu	a5,592(a5)
    2b82:	04c60703          	lb	a4,76(a2)
    2b86:	0187979b          	slliw	a5,a5,0x18
    2b8a:	4187d79b          	sraiw	a5,a5,0x18
    2b8e:	26f13023          	sd	a5,608(sp)
    2b92:	07f77793          	andi	a5,a4,127
    2b96:	10078793          	addi	a5,a5,256
    2b9a:	00075463          	bgez	a4,2ba2 <permute_vnx128qi+0xb24>
    2b9e:	54a0106f          	j	40e8 <permute_vnx128qi+0x206a>
    2ba2:	978a                	add	a5,a5,sp
    2ba4:	2507c783          	lbu	a5,592(a5)
    2ba8:	04d60703          	lb	a4,77(a2)
    2bac:	0187979b          	slliw	a5,a5,0x18
    2bb0:	4187d79b          	sraiw	a5,a5,0x18
    2bb4:	26f13423          	sd	a5,616(sp)
    2bb8:	07f77793          	andi	a5,a4,127
    2bbc:	10078793          	addi	a5,a5,256
    2bc0:	00075463          	bgez	a4,2bc8 <permute_vnx128qi+0xb4a>
    2bc4:	54a0106f          	j	410e <permute_vnx128qi+0x2090>
    2bc8:	978a                	add	a5,a5,sp
    2bca:	2507c783          	lbu	a5,592(a5)
    2bce:	04e60703          	lb	a4,78(a2)
    2bd2:	0187979b          	slliw	a5,a5,0x18
    2bd6:	4187d79b          	sraiw	a5,a5,0x18
    2bda:	26f13823          	sd	a5,624(sp)
    2bde:	07f77793          	andi	a5,a4,127
    2be2:	10078793          	addi	a5,a5,256
    2be6:	00075463          	bgez	a4,2bee <permute_vnx128qi+0xb70>
    2bea:	54a0106f          	j	4134 <permute_vnx128qi+0x20b6>
    2bee:	978a                	add	a5,a5,sp
    2bf0:	2507c783          	lbu	a5,592(a5)
    2bf4:	04f60703          	lb	a4,79(a2)
    2bf8:	0187979b          	slliw	a5,a5,0x18
    2bfc:	4187d79b          	sraiw	a5,a5,0x18
    2c00:	26f13c23          	sd	a5,632(sp)
    2c04:	07f77793          	andi	a5,a4,127
    2c08:	10078793          	addi	a5,a5,256
    2c0c:	00075463          	bgez	a4,2c14 <permute_vnx128qi+0xb96>
    2c10:	54a0106f          	j	415a <permute_vnx128qi+0x20dc>
    2c14:	978a                	add	a5,a5,sp
    2c16:	2507c783          	lbu	a5,592(a5)
    2c1a:	05060703          	lb	a4,80(a2)
    2c1e:	0187979b          	slliw	a5,a5,0x18
    2c22:	4187d79b          	sraiw	a5,a5,0x18
    2c26:	28f13023          	sd	a5,640(sp)
    2c2a:	07f77793          	andi	a5,a4,127
    2c2e:	10078793          	addi	a5,a5,256
    2c32:	00075463          	bgez	a4,2c3a <permute_vnx128qi+0xbbc>
    2c36:	54a0106f          	j	4180 <permute_vnx128qi+0x2102>
    2c3a:	978a                	add	a5,a5,sp
    2c3c:	2507c783          	lbu	a5,592(a5)
    2c40:	05160703          	lb	a4,81(a2)
    2c44:	0187979b          	slliw	a5,a5,0x18
    2c48:	4187d79b          	sraiw	a5,a5,0x18
    2c4c:	28f13423          	sd	a5,648(sp)
    2c50:	07f77793          	andi	a5,a4,127
    2c54:	10078793          	addi	a5,a5,256
    2c58:	00075463          	bgez	a4,2c60 <permute_vnx128qi+0xbe2>
    2c5c:	54a0106f          	j	41a6 <permute_vnx128qi+0x2128>
    2c60:	978a                	add	a5,a5,sp
    2c62:	2507c783          	lbu	a5,592(a5)
    2c66:	05260703          	lb	a4,82(a2)
    2c6a:	0187979b          	slliw	a5,a5,0x18
    2c6e:	4187d79b          	sraiw	a5,a5,0x18
    2c72:	28f13823          	sd	a5,656(sp)
    2c76:	07f77793          	andi	a5,a4,127
    2c7a:	10078793          	addi	a5,a5,256
    2c7e:	00075463          	bgez	a4,2c86 <permute_vnx128qi+0xc08>
    2c82:	54a0106f          	j	41cc <permute_vnx128qi+0x214e>
    2c86:	978a                	add	a5,a5,sp
    2c88:	2507c783          	lbu	a5,592(a5)
    2c8c:	05360703          	lb	a4,83(a2)
    2c90:	0187979b          	slliw	a5,a5,0x18
    2c94:	4187d79b          	sraiw	a5,a5,0x18
    2c98:	28f13c23          	sd	a5,664(sp)
    2c9c:	07f77793          	andi	a5,a4,127
    2ca0:	10078793          	addi	a5,a5,256
    2ca4:	00075463          	bgez	a4,2cac <permute_vnx128qi+0xc2e>
    2ca8:	54a0106f          	j	41f2 <permute_vnx128qi+0x2174>
    2cac:	978a                	add	a5,a5,sp
    2cae:	2507c783          	lbu	a5,592(a5)
    2cb2:	05460703          	lb	a4,84(a2)
    2cb6:	0187979b          	slliw	a5,a5,0x18
    2cba:	4187d79b          	sraiw	a5,a5,0x18
    2cbe:	2af13023          	sd	a5,672(sp)
    2cc2:	07f77793          	andi	a5,a4,127
    2cc6:	10078793          	addi	a5,a5,256
    2cca:	00075463          	bgez	a4,2cd2 <permute_vnx128qi+0xc54>
    2cce:	54a0106f          	j	4218 <permute_vnx128qi+0x219a>
    2cd2:	978a                	add	a5,a5,sp
    2cd4:	2507c783          	lbu	a5,592(a5)
    2cd8:	05560703          	lb	a4,85(a2)
    2cdc:	0187979b          	slliw	a5,a5,0x18
    2ce0:	4187d79b          	sraiw	a5,a5,0x18
    2ce4:	2af13423          	sd	a5,680(sp)
    2ce8:	07f77793          	andi	a5,a4,127
    2cec:	10078793          	addi	a5,a5,256
    2cf0:	00075463          	bgez	a4,2cf8 <permute_vnx128qi+0xc7a>
    2cf4:	54a0106f          	j	423e <permute_vnx128qi+0x21c0>
    2cf8:	978a                	add	a5,a5,sp
    2cfa:	2507c783          	lbu	a5,592(a5)
    2cfe:	05660703          	lb	a4,86(a2)
    2d02:	0187979b          	slliw	a5,a5,0x18
    2d06:	4187d79b          	sraiw	a5,a5,0x18
    2d0a:	2af13823          	sd	a5,688(sp)
    2d0e:	07f77793          	andi	a5,a4,127
    2d12:	10078793          	addi	a5,a5,256
    2d16:	00075463          	bgez	a4,2d1e <permute_vnx128qi+0xca0>
    2d1a:	54a0106f          	j	4264 <permute_vnx128qi+0x21e6>
    2d1e:	978a                	add	a5,a5,sp
    2d20:	2507c783          	lbu	a5,592(a5)
    2d24:	05760703          	lb	a4,87(a2)
    2d28:	0187979b          	slliw	a5,a5,0x18
    2d2c:	4187d79b          	sraiw	a5,a5,0x18
    2d30:	2af13c23          	sd	a5,696(sp)
    2d34:	07f77793          	andi	a5,a4,127
    2d38:	10078793          	addi	a5,a5,256
    2d3c:	00075463          	bgez	a4,2d44 <permute_vnx128qi+0xcc6>
    2d40:	54a0106f          	j	428a <permute_vnx128qi+0x220c>
    2d44:	978a                	add	a5,a5,sp
    2d46:	2507c783          	lbu	a5,592(a5)
    2d4a:	05860703          	lb	a4,88(a2)
    2d4e:	0187979b          	slliw	a5,a5,0x18
    2d52:	4187d79b          	sraiw	a5,a5,0x18
    2d56:	2cf13023          	sd	a5,704(sp)
    2d5a:	07f77793          	andi	a5,a4,127
    2d5e:	10078793          	addi	a5,a5,256
    2d62:	00075463          	bgez	a4,2d6a <permute_vnx128qi+0xcec>
    2d66:	54a0106f          	j	42b0 <permute_vnx128qi+0x2232>
    2d6a:	978a                	add	a5,a5,sp
    2d6c:	2507c783          	lbu	a5,592(a5)
    2d70:	05960703          	lb	a4,89(a2)
    2d74:	0187979b          	slliw	a5,a5,0x18
    2d78:	4187d79b          	sraiw	a5,a5,0x18
    2d7c:	2cf13423          	sd	a5,712(sp)
    2d80:	07f77793          	andi	a5,a4,127
    2d84:	10078793          	addi	a5,a5,256
    2d88:	00075463          	bgez	a4,2d90 <permute_vnx128qi+0xd12>
    2d8c:	54a0106f          	j	42d6 <permute_vnx128qi+0x2258>
    2d90:	978a                	add	a5,a5,sp
    2d92:	2507c783          	lbu	a5,592(a5)
    2d96:	05a60703          	lb	a4,90(a2)
    2d9a:	0187979b          	slliw	a5,a5,0x18
    2d9e:	4187d79b          	sraiw	a5,a5,0x18
    2da2:	2cf13823          	sd	a5,720(sp)
    2da6:	07f77793          	andi	a5,a4,127
    2daa:	10078793          	addi	a5,a5,256
    2dae:	00075463          	bgez	a4,2db6 <permute_vnx128qi+0xd38>
    2db2:	54a0106f          	j	42fc <permute_vnx128qi+0x227e>
    2db6:	978a                	add	a5,a5,sp
    2db8:	2507c783          	lbu	a5,592(a5)
    2dbc:	05b60703          	lb	a4,91(a2)
    2dc0:	0187979b          	slliw	a5,a5,0x18
    2dc4:	4187d79b          	sraiw	a5,a5,0x18
    2dc8:	2cf13c23          	sd	a5,728(sp)
    2dcc:	07f77793          	andi	a5,a4,127
    2dd0:	10078793          	addi	a5,a5,256
    2dd4:	00075463          	bgez	a4,2ddc <permute_vnx128qi+0xd5e>
    2dd8:	54a0106f          	j	4322 <permute_vnx128qi+0x22a4>
    2ddc:	978a                	add	a5,a5,sp
    2dde:	2507c783          	lbu	a5,592(a5)
    2de2:	05c60703          	lb	a4,92(a2)
    2de6:	0187979b          	slliw	a5,a5,0x18
    2dea:	4187d79b          	sraiw	a5,a5,0x18
    2dee:	2ef13023          	sd	a5,736(sp)
    2df2:	07f77793          	andi	a5,a4,127
    2df6:	10078793          	addi	a5,a5,256
    2dfa:	00075463          	bgez	a4,2e02 <permute_vnx128qi+0xd84>
    2dfe:	54a0106f          	j	4348 <permute_vnx128qi+0x22ca>
    2e02:	978a                	add	a5,a5,sp
    2e04:	2507c783          	lbu	a5,592(a5)
    2e08:	05d60703          	lb	a4,93(a2)
    2e0c:	0187979b          	slliw	a5,a5,0x18
    2e10:	4187d79b          	sraiw	a5,a5,0x18
    2e14:	2ef13423          	sd	a5,744(sp)
    2e18:	07f77793          	andi	a5,a4,127
    2e1c:	10078793          	addi	a5,a5,256
    2e20:	00075463          	bgez	a4,2e28 <permute_vnx128qi+0xdaa>
    2e24:	54a0106f          	j	436e <permute_vnx128qi+0x22f0>
    2e28:	978a                	add	a5,a5,sp
    2e2a:	2507c783          	lbu	a5,592(a5)
    2e2e:	05e60703          	lb	a4,94(a2)
    2e32:	0187979b          	slliw	a5,a5,0x18
    2e36:	4187d79b          	sraiw	a5,a5,0x18
    2e3a:	2ef13823          	sd	a5,752(sp)
    2e3e:	07f77793          	andi	a5,a4,127
    2e42:	10078793          	addi	a5,a5,256
    2e46:	00075463          	bgez	a4,2e4e <permute_vnx128qi+0xdd0>
    2e4a:	54a0106f          	j	4394 <permute_vnx128qi+0x2316>
    2e4e:	978a                	add	a5,a5,sp
    2e50:	2507c783          	lbu	a5,592(a5)
    2e54:	05f60703          	lb	a4,95(a2)
    2e58:	0187979b          	slliw	a5,a5,0x18
    2e5c:	4187d79b          	sraiw	a5,a5,0x18
    2e60:	2ef13c23          	sd	a5,760(sp)
    2e64:	07f77793          	andi	a5,a4,127
    2e68:	10078793          	addi	a5,a5,256
    2e6c:	00075463          	bgez	a4,2e74 <permute_vnx128qi+0xdf6>
    2e70:	54a0106f          	j	43ba <permute_vnx128qi+0x233c>
    2e74:	978a                	add	a5,a5,sp
    2e76:	2507c783          	lbu	a5,592(a5)
    2e7a:	06060703          	lb	a4,96(a2)
    2e7e:	0187979b          	slliw	a5,a5,0x18
    2e82:	4187d79b          	sraiw	a5,a5,0x18
    2e86:	30f13023          	sd	a5,768(sp)
    2e8a:	07f77793          	andi	a5,a4,127
    2e8e:	10078793          	addi	a5,a5,256
    2e92:	00075463          	bgez	a4,2e9a <permute_vnx128qi+0xe1c>
    2e96:	54a0106f          	j	43e0 <permute_vnx128qi+0x2362>
    2e9a:	978a                	add	a5,a5,sp
    2e9c:	2507c783          	lbu	a5,592(a5)
    2ea0:	06160703          	lb	a4,97(a2)
    2ea4:	0187979b          	slliw	a5,a5,0x18
    2ea8:	4187d79b          	sraiw	a5,a5,0x18
    2eac:	30f13423          	sd	a5,776(sp)
    2eb0:	07f77793          	andi	a5,a4,127
    2eb4:	10078793          	addi	a5,a5,256
    2eb8:	00075463          	bgez	a4,2ec0 <permute_vnx128qi+0xe42>
    2ebc:	54a0106f          	j	4406 <permute_vnx128qi+0x2388>
    2ec0:	978a                	add	a5,a5,sp
    2ec2:	2507c783          	lbu	a5,592(a5)
    2ec6:	06260703          	lb	a4,98(a2)
    2eca:	0187979b          	slliw	a5,a5,0x18
    2ece:	4187d79b          	sraiw	a5,a5,0x18
    2ed2:	30f13823          	sd	a5,784(sp)
    2ed6:	07f77793          	andi	a5,a4,127
    2eda:	10078793          	addi	a5,a5,256
    2ede:	00075463          	bgez	a4,2ee6 <permute_vnx128qi+0xe68>
    2ee2:	54a0106f          	j	442c <permute_vnx128qi+0x23ae>
    2ee6:	978a                	add	a5,a5,sp
    2ee8:	2507c783          	lbu	a5,592(a5)
    2eec:	06360703          	lb	a4,99(a2)
    2ef0:	0187979b          	slliw	a5,a5,0x18
    2ef4:	4187d79b          	sraiw	a5,a5,0x18
    2ef8:	30f13c23          	sd	a5,792(sp)
    2efc:	07f77793          	andi	a5,a4,127
    2f00:	10078793          	addi	a5,a5,256
    2f04:	00075463          	bgez	a4,2f0c <permute_vnx128qi+0xe8e>
    2f08:	54a0106f          	j	4452 <permute_vnx128qi+0x23d4>
    2f0c:	978a                	add	a5,a5,sp
    2f0e:	2507c783          	lbu	a5,592(a5)
    2f12:	06460703          	lb	a4,100(a2)
    2f16:	0187979b          	slliw	a5,a5,0x18
    2f1a:	4187d79b          	sraiw	a5,a5,0x18
    2f1e:	32f13023          	sd	a5,800(sp)
    2f22:	07f77793          	andi	a5,a4,127
    2f26:	10078793          	addi	a5,a5,256
    2f2a:	00075463          	bgez	a4,2f32 <permute_vnx128qi+0xeb4>
    2f2e:	54a0106f          	j	4478 <permute_vnx128qi+0x23fa>
    2f32:	978a                	add	a5,a5,sp
    2f34:	2507c783          	lbu	a5,592(a5)
    2f38:	06560703          	lb	a4,101(a2)
    2f3c:	0187979b          	slliw	a5,a5,0x18
    2f40:	4187d79b          	sraiw	a5,a5,0x18
    2f44:	32f13423          	sd	a5,808(sp)
    2f48:	07f77793          	andi	a5,a4,127
    2f4c:	10078793          	addi	a5,a5,256
    2f50:	00075463          	bgez	a4,2f58 <permute_vnx128qi+0xeda>
    2f54:	54a0106f          	j	449e <permute_vnx128qi+0x2420>
    2f58:	978a                	add	a5,a5,sp
    2f5a:	2507cd83          	lbu	s11,592(a5)
    2f5e:	06660703          	lb	a4,102(a2)
    2f62:	018d9d9b          	slliw	s11,s11,0x18
    2f66:	07f77793          	andi	a5,a4,127
    2f6a:	418ddd9b          	sraiw	s11,s11,0x18
    2f6e:	10078793          	addi	a5,a5,256
    2f72:	00075463          	bgez	a4,2f7a <permute_vnx128qi+0xefc>
    2f76:	54a0106f          	j	44c0 <permute_vnx128qi+0x2442>
    2f7a:	978a                	add	a5,a5,sp
    2f7c:	2507c783          	lbu	a5,592(a5)
    2f80:	06760703          	lb	a4,103(a2)
    2f84:	0187979b          	slliw	a5,a5,0x18
    2f88:	4187d79b          	sraiw	a5,a5,0x18
    2f8c:	32f13823          	sd	a5,816(sp)
    2f90:	07f77793          	andi	a5,a4,127
    2f94:	10078793          	addi	a5,a5,256
    2f98:	00075463          	bgez	a4,2fa0 <permute_vnx128qi+0xf22>
    2f9c:	54a0106f          	j	44e6 <permute_vnx128qi+0x2468>
    2fa0:	978a                	add	a5,a5,sp
    2fa2:	2507c783          	lbu	a5,592(a5)
    2fa6:	06860703          	lb	a4,104(a2)
    2faa:	0187979b          	slliw	a5,a5,0x18
    2fae:	4187d79b          	sraiw	a5,a5,0x18
    2fb2:	32f13c23          	sd	a5,824(sp)
    2fb6:	07f77793          	andi	a5,a4,127
    2fba:	10078793          	addi	a5,a5,256
    2fbe:	00075463          	bgez	a4,2fc6 <permute_vnx128qi+0xf48>
    2fc2:	54a0106f          	j	450c <permute_vnx128qi+0x248e>
    2fc6:	978a                	add	a5,a5,sp
    2fc8:	2507cd03          	lbu	s10,592(a5)
    2fcc:	06960703          	lb	a4,105(a2)
    2fd0:	018d1d1b          	slliw	s10,s10,0x18
    2fd4:	07f77793          	andi	a5,a4,127
    2fd8:	418d5d1b          	sraiw	s10,s10,0x18
    2fdc:	10078793          	addi	a5,a5,256
    2fe0:	00075463          	bgez	a4,2fe8 <permute_vnx128qi+0xf6a>
    2fe4:	54a0106f          	j	452e <permute_vnx128qi+0x24b0>
    2fe8:	978a                	add	a5,a5,sp
    2fea:	2507cc83          	lbu	s9,592(a5)
    2fee:	06a60703          	lb	a4,106(a2)
    2ff2:	018c9c9b          	slliw	s9,s9,0x18
    2ff6:	07f77793          	andi	a5,a4,127
    2ffa:	418cdc9b          	sraiw	s9,s9,0x18
    2ffe:	10078793          	addi	a5,a5,256
    3002:	00075463          	bgez	a4,300a <permute_vnx128qi+0xf8c>
    3006:	54a0106f          	j	4550 <permute_vnx128qi+0x24d2>
    300a:	978a                	add	a5,a5,sp
    300c:	2507cc03          	lbu	s8,592(a5)
    3010:	06b60703          	lb	a4,107(a2)
    3014:	018c1c1b          	slliw	s8,s8,0x18
    3018:	07f77793          	andi	a5,a4,127
    301c:	418c5c1b          	sraiw	s8,s8,0x18
    3020:	10078793          	addi	a5,a5,256
    3024:	00075463          	bgez	a4,302c <permute_vnx128qi+0xfae>
    3028:	54a0106f          	j	4572 <permute_vnx128qi+0x24f4>
    302c:	978a                	add	a5,a5,sp
    302e:	2507cb83          	lbu	s7,592(a5)
    3032:	06c60703          	lb	a4,108(a2)
    3036:	018b9b9b          	slliw	s7,s7,0x18
    303a:	07f77793          	andi	a5,a4,127
    303e:	418bdb9b          	sraiw	s7,s7,0x18
    3042:	10078793          	addi	a5,a5,256
    3046:	00075463          	bgez	a4,304e <permute_vnx128qi+0xfd0>
    304a:	54a0106f          	j	4594 <permute_vnx128qi+0x2516>
    304e:	978a                	add	a5,a5,sp
    3050:	2507cb03          	lbu	s6,592(a5)
    3054:	06d60703          	lb	a4,109(a2)
    3058:	018b1b1b          	slliw	s6,s6,0x18
    305c:	07f77793          	andi	a5,a4,127
    3060:	418b5b1b          	sraiw	s6,s6,0x18
    3064:	10078793          	addi	a5,a5,256
    3068:	00075463          	bgez	a4,3070 <permute_vnx128qi+0xff2>
    306c:	54a0106f          	j	45b6 <permute_vnx128qi+0x2538>
    3070:	978a                	add	a5,a5,sp
    3072:	2507ca83          	lbu	s5,592(a5)
    3076:	06e60703          	lb	a4,110(a2)
    307a:	018a9a9b          	slliw	s5,s5,0x18
    307e:	07f77793          	andi	a5,a4,127
    3082:	418ada9b          	sraiw	s5,s5,0x18
    3086:	10078793          	addi	a5,a5,256
    308a:	00075463          	bgez	a4,3092 <permute_vnx128qi+0x1014>
    308e:	54a0106f          	j	45d8 <permute_vnx128qi+0x255a>
    3092:	978a                	add	a5,a5,sp
    3094:	2507ca03          	lbu	s4,592(a5)
    3098:	06f60703          	lb	a4,111(a2)
    309c:	018a1a1b          	slliw	s4,s4,0x18
    30a0:	07f77793          	andi	a5,a4,127
    30a4:	418a5a1b          	sraiw	s4,s4,0x18
    30a8:	10078793          	addi	a5,a5,256
    30ac:	00075463          	bgez	a4,30b4 <permute_vnx128qi+0x1036>
    30b0:	54a0106f          	j	45fa <permute_vnx128qi+0x257c>
    30b4:	978a                	add	a5,a5,sp
    30b6:	2507c983          	lbu	s3,592(a5)
    30ba:	07060703          	lb	a4,112(a2)
    30be:	0189999b          	slliw	s3,s3,0x18
    30c2:	07f77793          	andi	a5,a4,127
    30c6:	4189d99b          	sraiw	s3,s3,0x18
    30ca:	10078793          	addi	a5,a5,256
    30ce:	00075463          	bgez	a4,30d6 <permute_vnx128qi+0x1058>
    30d2:	54a0106f          	j	461c <permute_vnx128qi+0x259e>
    30d6:	978a                	add	a5,a5,sp
    30d8:	2507c903          	lbu	s2,592(a5)
    30dc:	07160703          	lb	a4,113(a2)
    30e0:	0189191b          	slliw	s2,s2,0x18
    30e4:	07f77793          	andi	a5,a4,127
    30e8:	4189591b          	sraiw	s2,s2,0x18
    30ec:	10078793          	addi	a5,a5,256
    30f0:	00075463          	bgez	a4,30f8 <permute_vnx128qi+0x107a>
    30f4:	54a0106f          	j	463e <permute_vnx128qi+0x25c0>
    30f8:	978a                	add	a5,a5,sp
    30fa:	2507c483          	lbu	s1,592(a5)
    30fe:	07260703          	lb	a4,114(a2)
    3102:	0184949b          	slliw	s1,s1,0x18
    3106:	07f77793          	andi	a5,a4,127
    310a:	4184d49b          	sraiw	s1,s1,0x18
    310e:	10078793          	addi	a5,a5,256
    3112:	00075463          	bgez	a4,311a <permute_vnx128qi+0x109c>
    3116:	54a0106f          	j	4660 <permute_vnx128qi+0x25e2>
    311a:	978a                	add	a5,a5,sp
    311c:	2507c403          	lbu	s0,592(a5)
    3120:	07360703          	lb	a4,115(a2)
    3124:	0184141b          	slliw	s0,s0,0x18
    3128:	07f77793          	andi	a5,a4,127
    312c:	4184541b          	sraiw	s0,s0,0x18
    3130:	10078793          	addi	a5,a5,256
    3134:	00075463          	bgez	a4,313c <permute_vnx128qi+0x10be>
    3138:	54a0106f          	j	4682 <permute_vnx128qi+0x2604>
    313c:	978a                	add	a5,a5,sp
    313e:	2507c383          	lbu	t2,592(a5)
    3142:	07460703          	lb	a4,116(a2)
    3146:	0183939b          	slliw	t2,t2,0x18
    314a:	07f77793          	andi	a5,a4,127
    314e:	4183d39b          	sraiw	t2,t2,0x18
    3152:	10078793          	addi	a5,a5,256
    3156:	00075463          	bgez	a4,315e <permute_vnx128qi+0x10e0>
    315a:	54a0106f          	j	46a4 <permute_vnx128qi+0x2626>
    315e:	978a                	add	a5,a5,sp
    3160:	2507c283          	lbu	t0,592(a5)
    3164:	07560703          	lb	a4,117(a2)
    3168:	0182929b          	slliw	t0,t0,0x18
    316c:	07f77793          	andi	a5,a4,127
    3170:	4182d29b          	sraiw	t0,t0,0x18
    3174:	10078793          	addi	a5,a5,256
    3178:	00075463          	bgez	a4,3180 <permute_vnx128qi+0x1102>
    317c:	54a0106f          	j	46c6 <permute_vnx128qi+0x2648>
    3180:	978a                	add	a5,a5,sp
    3182:	2507cf83          	lbu	t6,592(a5)
    3186:	07660703          	lb	a4,118(a2)
    318a:	018f9f9b          	slliw	t6,t6,0x18
    318e:	07f77793          	andi	a5,a4,127
    3192:	418fdf9b          	sraiw	t6,t6,0x18
    3196:	10078793          	addi	a5,a5,256
    319a:	00075463          	bgez	a4,31a2 <permute_vnx128qi+0x1124>
    319e:	54a0106f          	j	46e8 <permute_vnx128qi+0x266a>
    31a2:	978a                	add	a5,a5,sp
    31a4:	2507cf03          	lbu	t5,592(a5)
    31a8:	07760703          	lb	a4,119(a2)
    31ac:	018f1f1b          	slliw	t5,t5,0x18
    31b0:	07f77793          	andi	a5,a4,127
    31b4:	418f5f1b          	sraiw	t5,t5,0x18
    31b8:	10078793          	addi	a5,a5,256
    31bc:	00075463          	bgez	a4,31c4 <permute_vnx128qi+0x1146>
    31c0:	54a0106f          	j	470a <permute_vnx128qi+0x268c>
    31c4:	978a                	add	a5,a5,sp
    31c6:	2507ce83          	lbu	t4,592(a5)
    31ca:	07860703          	lb	a4,120(a2)
    31ce:	018e9e9b          	slliw	t4,t4,0x18
    31d2:	07f77793          	andi	a5,a4,127
    31d6:	418ede9b          	sraiw	t4,t4,0x18
    31da:	10078793          	addi	a5,a5,256
    31de:	00075463          	bgez	a4,31e6 <permute_vnx128qi+0x1168>
    31e2:	54a0106f          	j	472c <permute_vnx128qi+0x26ae>
    31e6:	978a                	add	a5,a5,sp
    31e8:	2507ce03          	lbu	t3,592(a5)
    31ec:	07960703          	lb	a4,121(a2)
    31f0:	018e1e1b          	slliw	t3,t3,0x18
    31f4:	07f77793          	andi	a5,a4,127
    31f8:	418e5e1b          	sraiw	t3,t3,0x18
    31fc:	10078793          	addi	a5,a5,256
    3200:	00075463          	bgez	a4,3208 <permute_vnx128qi+0x118a>
    3204:	54a0106f          	j	474e <permute_vnx128qi+0x26d0>
    3208:	978a                	add	a5,a5,sp
    320a:	2507c303          	lbu	t1,592(a5)
    320e:	07a60703          	lb	a4,122(a2)
    3212:	0183131b          	slliw	t1,t1,0x18
    3216:	07f77793          	andi	a5,a4,127
    321a:	4183531b          	sraiw	t1,t1,0x18
    321e:	10078793          	addi	a5,a5,256
    3222:	00075463          	bgez	a4,322a <permute_vnx128qi+0x11ac>
    3226:	54a0106f          	j	4770 <permute_vnx128qi+0x26f2>
    322a:	978a                	add	a5,a5,sp
    322c:	2507c883          	lbu	a7,592(a5)
    3230:	07b60703          	lb	a4,123(a2)
    3234:	0188989b          	slliw	a7,a7,0x18
    3238:	07f77793          	andi	a5,a4,127
    323c:	4188d89b          	sraiw	a7,a7,0x18
    3240:	10078793          	addi	a5,a5,256
    3244:	00075463          	bgez	a4,324c <permute_vnx128qi+0x11ce>
    3248:	54a0106f          	j	4792 <permute_vnx128qi+0x2714>
    324c:	978a                	add	a5,a5,sp
    324e:	2507c803          	lbu	a6,592(a5)
    3252:	07c60703          	lb	a4,124(a2)
    3256:	0188181b          	slliw	a6,a6,0x18
    325a:	07f77793          	andi	a5,a4,127
    325e:	4188581b          	sraiw	a6,a6,0x18
    3262:	10078793          	addi	a5,a5,256
    3266:	00075463          	bgez	a4,326e <permute_vnx128qi+0x11f0>
    326a:	54a0106f          	j	47b4 <permute_vnx128qi+0x2736>
    326e:	978a                	add	a5,a5,sp
    3270:	2507c503          	lbu	a0,592(a5)
    3274:	07d60703          	lb	a4,125(a2)
    3278:	0185151b          	slliw	a0,a0,0x18
    327c:	07f77793          	andi	a5,a4,127
    3280:	4185551b          	sraiw	a0,a0,0x18
    3284:	10078793          	addi	a5,a5,256
    3288:	00075463          	bgez	a4,3290 <permute_vnx128qi+0x1212>
    328c:	54a0106f          	j	47d6 <permute_vnx128qi+0x2758>
    3290:	978a                	add	a5,a5,sp
    3292:	2507c583          	lbu	a1,592(a5)
    3296:	07e60703          	lb	a4,126(a2)
    329a:	0185959b          	slliw	a1,a1,0x18
    329e:	07f77793          	andi	a5,a4,127
    32a2:	4185d59b          	sraiw	a1,a1,0x18
    32a6:	10078793          	addi	a5,a5,256
    32aa:	00075463          	bgez	a4,32b2 <permute_vnx128qi+0x1234>
    32ae:	54a0106f          	j	47f8 <permute_vnx128qi+0x277a>
    32b2:	978a                	add	a5,a5,sp
    32b4:	2507c703          	lbu	a4,592(a5)
    32b8:	07f60603          	lb	a2,127(a2)
    32bc:	0187171b          	slliw	a4,a4,0x18
    32c0:	07f67793          	andi	a5,a2,127
    32c4:	4187571b          	sraiw	a4,a4,0x18
    32c8:	10078793          	addi	a5,a5,256
    32cc:	00065463          	bgez	a2,32d4 <permute_vnx128qi+0x1256>
    32d0:	54a0106f          	j	481a <permute_vnx128qi+0x279c>
    32d4:	978a                	add	a5,a5,sp
    32d6:	2507c783          	lbu	a5,592(a5)
    32da:	6622                	ld	a2,8(sp)
    32dc:	0187979b          	slliw	a5,a5,0x18
    32e0:	4187d79b          	sraiw	a5,a5,0x18
    32e4:	00065463          	bgez	a2,32ec <permute_vnx128qi+0x126e>
    32e8:	54a0106f          	j	4832 <permute_vnx128qi+0x27b4>
    32ec:	34014603          	lbu	a2,832(sp)
    32f0:	00c68023          	sb	a2,0(a3)
    32f4:	6642                	ld	a2,16(sp)
    32f6:	00c680a3          	sb	a2,1(a3)
    32fa:	6662                	ld	a2,24(sp)
    32fc:	00c68123          	sb	a2,2(a3)
    3300:	7602                	ld	a2,32(sp)
    3302:	00c681a3          	sb	a2,3(a3)
    3306:	7622                	ld	a2,40(sp)
    3308:	00c68223          	sb	a2,4(a3)
    330c:	7642                	ld	a2,48(sp)
    330e:	00c682a3          	sb	a2,5(a3)
    3312:	7662                	ld	a2,56(sp)
    3314:	00c68323          	sb	a2,6(a3)
    3318:	6606                	ld	a2,64(sp)
    331a:	00c683a3          	sb	a2,7(a3)
    331e:	6626                	ld	a2,72(sp)
    3320:	00c68423          	sb	a2,8(a3)
    3324:	6646                	ld	a2,80(sp)
    3326:	00c684a3          	sb	a2,9(a3)
    332a:	6666                	ld	a2,88(sp)
    332c:	00c68523          	sb	a2,10(a3)
    3330:	7606                	ld	a2,96(sp)
    3332:	00c685a3          	sb	a2,11(a3)
    3336:	7626                	ld	a2,104(sp)
    3338:	00c68623          	sb	a2,12(a3)
    333c:	7646                	ld	a2,112(sp)
    333e:	00c686a3          	sb	a2,13(a3)
    3342:	7666                	ld	a2,120(sp)
    3344:	00c68723          	sb	a2,14(a3)
    3348:	660a                	ld	a2,128(sp)
    334a:	00c687a3          	sb	a2,15(a3)
    334e:	662a                	ld	a2,136(sp)
    3350:	00c68823          	sb	a2,16(a3)
    3354:	664a                	ld	a2,144(sp)
    3356:	00c688a3          	sb	a2,17(a3)
    335a:	666a                	ld	a2,152(sp)
    335c:	00c68923          	sb	a2,18(a3)
    3360:	760a                	ld	a2,160(sp)
    3362:	00c689a3          	sb	a2,19(a3)
    3366:	762a                	ld	a2,168(sp)
    3368:	00c68a23          	sb	a2,20(a3)
    336c:	764a                	ld	a2,176(sp)
    336e:	00c68aa3          	sb	a2,21(a3)
    3372:	766a                	ld	a2,184(sp)
    3374:	00c68b23          	sb	a2,22(a3)
    3378:	660e                	ld	a2,192(sp)
    337a:	00c68ba3          	sb	a2,23(a3)
    337e:	662e                	ld	a2,200(sp)
    3380:	00c68c23          	sb	a2,24(a3)
    3384:	664e                	ld	a2,208(sp)
    3386:	00c68ca3          	sb	a2,25(a3)
    338a:	666e                	ld	a2,216(sp)
    338c:	00c68d23          	sb	a2,26(a3)
    3390:	760e                	ld	a2,224(sp)
    3392:	00c68da3          	sb	a2,27(a3)
    3396:	762e                	ld	a2,232(sp)
    3398:	00c68e23          	sb	a2,28(a3)
    339c:	764e                	ld	a2,240(sp)
    339e:	00c68ea3          	sb	a2,29(a3)
    33a2:	766e                	ld	a2,248(sp)
    33a4:	00c68f23          	sb	a2,30(a3)
    33a8:	6612                	ld	a2,256(sp)
    33aa:	00c68fa3          	sb	a2,31(a3)
    33ae:	6632                	ld	a2,264(sp)
    33b0:	02c68023          	sb	a2,32(a3)
    33b4:	6652                	ld	a2,272(sp)
    33b6:	02c680a3          	sb	a2,33(a3)
    33ba:	6672                	ld	a2,280(sp)
    33bc:	02c68123          	sb	a2,34(a3)
    33c0:	7612                	ld	a2,288(sp)
    33c2:	02c681a3          	sb	a2,35(a3)
    33c6:	7632                	ld	a2,296(sp)
    33c8:	02c68223          	sb	a2,36(a3)
    33cc:	7652                	ld	a2,304(sp)
    33ce:	02c682a3          	sb	a2,37(a3)
    33d2:	7672                	ld	a2,312(sp)
    33d4:	02c68323          	sb	a2,38(a3)
    33d8:	6616                	ld	a2,320(sp)
    33da:	02c683a3          	sb	a2,39(a3)
    33de:	6636                	ld	a2,328(sp)
    33e0:	02c68423          	sb	a2,40(a3)
    33e4:	6656                	ld	a2,336(sp)
    33e6:	02c684a3          	sb	a2,41(a3)
    33ea:	6676                	ld	a2,344(sp)
    33ec:	02c68523          	sb	a2,42(a3)
    33f0:	7616                	ld	a2,352(sp)
    33f2:	02c685a3          	sb	a2,43(a3)
    33f6:	7636                	ld	a2,360(sp)
    33f8:	02c68623          	sb	a2,44(a3)
    33fc:	7656                	ld	a2,368(sp)
    33fe:	02c686a3          	sb	a2,45(a3)
    3402:	7676                	ld	a2,376(sp)
    3404:	02c68723          	sb	a2,46(a3)
    3408:	661a                	ld	a2,384(sp)
    340a:	02c687a3          	sb	a2,47(a3)
    340e:	663a                	ld	a2,392(sp)
    3410:	02c68823          	sb	a2,48(a3)
    3414:	665a                	ld	a2,400(sp)
    3416:	02c688a3          	sb	a2,49(a3)
    341a:	667a                	ld	a2,408(sp)
    341c:	02c68923          	sb	a2,50(a3)
    3420:	761a                	ld	a2,416(sp)
    3422:	02c689a3          	sb	a2,51(a3)
    3426:	763a                	ld	a2,424(sp)
    3428:	02c68a23          	sb	a2,52(a3)
    342c:	765a                	ld	a2,432(sp)
    342e:	02c68aa3          	sb	a2,53(a3)
    3432:	767a                	ld	a2,440(sp)
    3434:	02c68b23          	sb	a2,54(a3)
    3438:	661e                	ld	a2,448(sp)
    343a:	02c68ba3          	sb	a2,55(a3)
    343e:	663e                	ld	a2,456(sp)
    3440:	02c68c23          	sb	a2,56(a3)
    3444:	665e                	ld	a2,464(sp)
    3446:	02c68ca3          	sb	a2,57(a3)
    344a:	667e                	ld	a2,472(sp)
    344c:	02c68d23          	sb	a2,58(a3)
    3450:	761e                	ld	a2,480(sp)
    3452:	02c68da3          	sb	a2,59(a3)
    3456:	763e                	ld	a2,488(sp)
    3458:	02c68e23          	sb	a2,60(a3)
    345c:	765e                	ld	a2,496(sp)
    345e:	02c68ea3          	sb	a2,61(a3)
    3462:	767e                	ld	a2,504(sp)
    3464:	02c68f23          	sb	a2,62(a3)
    3468:	20013603          	ld	a2,512(sp)
    346c:	02c68fa3          	sb	a2,63(a3)
    3470:	20813603          	ld	a2,520(sp)
    3474:	04c68023          	sb	a2,64(a3)
    3478:	21013603          	ld	a2,528(sp)
    347c:	04c680a3          	sb	a2,65(a3)
    3480:	21813603          	ld	a2,536(sp)
    3484:	04c68123          	sb	a2,66(a3)
    3488:	22013603          	ld	a2,544(sp)
    348c:	04c681a3          	sb	a2,67(a3)
    3490:	22813603          	ld	a2,552(sp)
    3494:	04c68223          	sb	a2,68(a3)
    3498:	23013603          	ld	a2,560(sp)
    349c:	04c682a3          	sb	a2,69(a3)
    34a0:	23813603          	ld	a2,568(sp)
    34a4:	04c68323          	sb	a2,70(a3)
    34a8:	24013603          	ld	a2,576(sp)
    34ac:	04c683a3          	sb	a2,71(a3)
    34b0:	24813603          	ld	a2,584(sp)
    34b4:	04c68423          	sb	a2,72(a3)
    34b8:	25013603          	ld	a2,592(sp)
    34bc:	04c684a3          	sb	a2,73(a3)
    34c0:	25813603          	ld	a2,600(sp)
    34c4:	04c68523          	sb	a2,74(a3)
    34c8:	26013603          	ld	a2,608(sp)
    34cc:	04c685a3          	sb	a2,75(a3)
    34d0:	26813603          	ld	a2,616(sp)
    34d4:	04c68623          	sb	a2,76(a3)
    34d8:	27013603          	ld	a2,624(sp)
    34dc:	04c686a3          	sb	a2,77(a3)
    34e0:	27813603          	ld	a2,632(sp)
    34e4:	04c68723          	sb	a2,78(a3)
    34e8:	28013603          	ld	a2,640(sp)
    34ec:	04c687a3          	sb	a2,79(a3)
    34f0:	28813603          	ld	a2,648(sp)
    34f4:	04c68823          	sb	a2,80(a3)
    34f8:	29013603          	ld	a2,656(sp)
    34fc:	04c688a3          	sb	a2,81(a3)
    3500:	29813603          	ld	a2,664(sp)
    3504:	04c68923          	sb	a2,82(a3)
    3508:	2a013603          	ld	a2,672(sp)
    350c:	04c689a3          	sb	a2,83(a3)
    3510:	2a813603          	ld	a2,680(sp)
    3514:	04c68a23          	sb	a2,84(a3)
    3518:	2b013603          	ld	a2,688(sp)
    351c:	04c68aa3          	sb	a2,85(a3)
    3520:	2b813603          	ld	a2,696(sp)
    3524:	04c68b23          	sb	a2,86(a3)
    3528:	2c013603          	ld	a2,704(sp)
    352c:	04c68ba3          	sb	a2,87(a3)
    3530:	2c813603          	ld	a2,712(sp)
    3534:	04c68c23          	sb	a2,88(a3)
    3538:	2d013603          	ld	a2,720(sp)
    353c:	04c68ca3          	sb	a2,89(a3)
    3540:	2d813603          	ld	a2,728(sp)
    3544:	04c68d23          	sb	a2,90(a3)
    3548:	2e013603          	ld	a2,736(sp)
    354c:	04c68da3          	sb	a2,91(a3)
    3550:	2e813603          	ld	a2,744(sp)
    3554:	04c68e23          	sb	a2,92(a3)
    3558:	2f013603          	ld	a2,752(sp)
    355c:	04c68ea3          	sb	a2,93(a3)
    3560:	2f813603          	ld	a2,760(sp)
    3564:	04c68f23          	sb	a2,94(a3)
    3568:	30013603          	ld	a2,768(sp)
    356c:	04c68fa3          	sb	a2,95(a3)
    3570:	30813603          	ld	a2,776(sp)
    3574:	06c68023          	sb	a2,96(a3)
    3578:	31013603          	ld	a2,784(sp)
    357c:	07b682a3          	sb	s11,101(a3)
    3580:	07a68423          	sb	s10,104(a3)
    3584:	06c680a3          	sb	a2,97(a3)
    3588:	31813603          	ld	a2,792(sp)
    358c:	079684a3          	sb	s9,105(a3)
    3590:	07868523          	sb	s8,106(a3)
    3594:	06c68123          	sb	a2,98(a3)
    3598:	32013603          	ld	a2,800(sp)
    359c:	077685a3          	sb	s7,107(a3)
    35a0:	07668623          	sb	s6,108(a3)
    35a4:	06c681a3          	sb	a2,99(a3)
    35a8:	32813603          	ld	a2,808(sp)
    35ac:	075686a3          	sb	s5,109(a3)
    35b0:	07468723          	sb	s4,110(a3)
    35b4:	06c68223          	sb	a2,100(a3)
    35b8:	33013603          	ld	a2,816(sp)
    35bc:	073687a3          	sb	s3,111(a3)
    35c0:	07268823          	sb	s2,112(a3)
    35c4:	06c68323          	sb	a2,102(a3)
    35c8:	33813603          	ld	a2,824(sp)
    35cc:	069688a3          	sb	s1,113(a3)
    35d0:	06868923          	sb	s0,114(a3)
    35d4:	06c683a3          	sb	a2,103(a3)
    35d8:	067689a3          	sb	t2,115(a3)
    35dc:	06568a23          	sb	t0,116(a3)
    35e0:	07f68aa3          	sb	t6,117(a3)
    35e4:	07e68b23          	sb	t5,118(a3)
    35e8:	07d68ba3          	sb	t4,119(a3)
    35ec:	07c68c23          	sb	t3,120(a3)
    35f0:	06668ca3          	sb	t1,121(a3)
    35f4:	07168d23          	sb	a7,122(a3)
    35f8:	07068da3          	sb	a6,123(a3)
    35fc:	4a813403          	ld	s0,1192(sp)
    3600:	06a68e23          	sb	a0,124(a3)
    3604:	06b68ea3          	sb	a1,125(a3)
    3608:	06e68f23          	sb	a4,126(a3)
    360c:	06f68fa3          	sb	a5,127(a3)
    3610:	4a013483          	ld	s1,1184(sp)
    3614:	49813903          	ld	s2,1176(sp)
    3618:	49013983          	ld	s3,1168(sp)
    361c:	48813a03          	ld	s4,1160(sp)
    3620:	48013a83          	ld	s5,1152(sp)
    3624:	47813b03          	ld	s6,1144(sp)
    3628:	47013b83          	ld	s7,1136(sp)
    362c:	46813c03          	ld	s8,1128(sp)
    3630:	46013c83          	ld	s9,1120(sp)
    3634:	45813d03          	ld	s10,1112(sp)
    3638:	45013d83          	ld	s11,1104(sp)
    363c:	4b010113          	addi	sp,sp,1200
    3640:	8082                	ret
    3642:	978a                	add	a5,a5,sp
    3644:	2d07c783          	lbu	a5,720(a5)
    3648:	00260703          	lb	a4,2(a2)
    364c:	0187979b          	slliw	a5,a5,0x18
    3650:	4187d79b          	sraiw	a5,a5,0x18
    3654:	e83e                	sd	a5,16(sp)
    3656:	07f77793          	andi	a5,a4,127
    365a:	10078793          	addi	a5,a5,256
    365e:	00074463          	bltz	a4,3666 <permute_vnx128qi+0x15e8>
    3662:	abffe06f          	j	2120 <permute_vnx128qi+0xa2>
    3666:	978a                	add	a5,a5,sp
    3668:	2d07c783          	lbu	a5,720(a5)
    366c:	00360703          	lb	a4,3(a2)
    3670:	0187979b          	slliw	a5,a5,0x18
    3674:	4187d79b          	sraiw	a5,a5,0x18
    3678:	ec3e                	sd	a5,24(sp)
    367a:	07f77793          	andi	a5,a4,127
    367e:	10078793          	addi	a5,a5,256
    3682:	00074463          	bltz	a4,368a <permute_vnx128qi+0x160c>
    3686:	abffe06f          	j	2144 <permute_vnx128qi+0xc6>
    368a:	978a                	add	a5,a5,sp
    368c:	2d07c783          	lbu	a5,720(a5)
    3690:	00460703          	lb	a4,4(a2)
    3694:	0187979b          	slliw	a5,a5,0x18
    3698:	4187d79b          	sraiw	a5,a5,0x18
    369c:	f03e                	sd	a5,32(sp)
    369e:	07f77793          	andi	a5,a4,127
    36a2:	10078793          	addi	a5,a5,256
    36a6:	00074463          	bltz	a4,36ae <permute_vnx128qi+0x1630>
    36aa:	abffe06f          	j	2168 <permute_vnx128qi+0xea>
    36ae:	978a                	add	a5,a5,sp
    36b0:	2d07c783          	lbu	a5,720(a5)
    36b4:	00560703          	lb	a4,5(a2)
    36b8:	0187979b          	slliw	a5,a5,0x18
    36bc:	4187d79b          	sraiw	a5,a5,0x18
    36c0:	f43e                	sd	a5,40(sp)
    36c2:	07f77793          	andi	a5,a4,127
    36c6:	10078793          	addi	a5,a5,256
    36ca:	00074463          	bltz	a4,36d2 <permute_vnx128qi+0x1654>
    36ce:	abffe06f          	j	218c <permute_vnx128qi+0x10e>
    36d2:	978a                	add	a5,a5,sp
    36d4:	2d07c783          	lbu	a5,720(a5)
    36d8:	00660703          	lb	a4,6(a2)
    36dc:	0187979b          	slliw	a5,a5,0x18
    36e0:	4187d79b          	sraiw	a5,a5,0x18
    36e4:	f83e                	sd	a5,48(sp)
    36e6:	07f77793          	andi	a5,a4,127
    36ea:	10078793          	addi	a5,a5,256
    36ee:	00074463          	bltz	a4,36f6 <permute_vnx128qi+0x1678>
    36f2:	abffe06f          	j	21b0 <permute_vnx128qi+0x132>
    36f6:	978a                	add	a5,a5,sp
    36f8:	2d07c783          	lbu	a5,720(a5)
    36fc:	00760703          	lb	a4,7(a2)
    3700:	0187979b          	slliw	a5,a5,0x18
    3704:	4187d79b          	sraiw	a5,a5,0x18
    3708:	fc3e                	sd	a5,56(sp)
    370a:	07f77793          	andi	a5,a4,127
    370e:	10078793          	addi	a5,a5,256
    3712:	00074463          	bltz	a4,371a <permute_vnx128qi+0x169c>
    3716:	abffe06f          	j	21d4 <permute_vnx128qi+0x156>
    371a:	978a                	add	a5,a5,sp
    371c:	2d07c783          	lbu	a5,720(a5)
    3720:	00860703          	lb	a4,8(a2)
    3724:	0187979b          	slliw	a5,a5,0x18
    3728:	4187d79b          	sraiw	a5,a5,0x18
    372c:	e0be                	sd	a5,64(sp)
    372e:	07f77793          	andi	a5,a4,127
    3732:	10078793          	addi	a5,a5,256
    3736:	00074463          	bltz	a4,373e <permute_vnx128qi+0x16c0>
    373a:	abffe06f          	j	21f8 <permute_vnx128qi+0x17a>
    373e:	978a                	add	a5,a5,sp
    3740:	2d07c783          	lbu	a5,720(a5)
    3744:	00960703          	lb	a4,9(a2)
    3748:	0187979b          	slliw	a5,a5,0x18
    374c:	4187d79b          	sraiw	a5,a5,0x18
    3750:	e4be                	sd	a5,72(sp)
    3752:	07f77793          	andi	a5,a4,127
    3756:	10078793          	addi	a5,a5,256
    375a:	00074463          	bltz	a4,3762 <permute_vnx128qi+0x16e4>
    375e:	abffe06f          	j	221c <permute_vnx128qi+0x19e>
    3762:	978a                	add	a5,a5,sp
    3764:	2d07c783          	lbu	a5,720(a5)
    3768:	00a60703          	lb	a4,10(a2)
    376c:	0187979b          	slliw	a5,a5,0x18
    3770:	4187d79b          	sraiw	a5,a5,0x18
    3774:	e8be                	sd	a5,80(sp)
    3776:	07f77793          	andi	a5,a4,127
    377a:	10078793          	addi	a5,a5,256
    377e:	00074463          	bltz	a4,3786 <permute_vnx128qi+0x1708>
    3782:	abffe06f          	j	2240 <permute_vnx128qi+0x1c2>
    3786:	978a                	add	a5,a5,sp
    3788:	2d07c783          	lbu	a5,720(a5)
    378c:	00b60703          	lb	a4,11(a2)
    3790:	0187979b          	slliw	a5,a5,0x18
    3794:	4187d79b          	sraiw	a5,a5,0x18
    3798:	ecbe                	sd	a5,88(sp)
    379a:	07f77793          	andi	a5,a4,127
    379e:	10078793          	addi	a5,a5,256
    37a2:	00074463          	bltz	a4,37aa <permute_vnx128qi+0x172c>
    37a6:	abffe06f          	j	2264 <permute_vnx128qi+0x1e6>
    37aa:	978a                	add	a5,a5,sp
    37ac:	2d07c783          	lbu	a5,720(a5)
    37b0:	00c60703          	lb	a4,12(a2)
    37b4:	0187979b          	slliw	a5,a5,0x18
    37b8:	4187d79b          	sraiw	a5,a5,0x18
    37bc:	f0be                	sd	a5,96(sp)
    37be:	07f77793          	andi	a5,a4,127
    37c2:	10078793          	addi	a5,a5,256
    37c6:	00074463          	bltz	a4,37ce <permute_vnx128qi+0x1750>
    37ca:	abffe06f          	j	2288 <permute_vnx128qi+0x20a>
    37ce:	978a                	add	a5,a5,sp
    37d0:	2d07c783          	lbu	a5,720(a5)
    37d4:	00d60703          	lb	a4,13(a2)
    37d8:	0187979b          	slliw	a5,a5,0x18
    37dc:	4187d79b          	sraiw	a5,a5,0x18
    37e0:	f4be                	sd	a5,104(sp)
    37e2:	07f77793          	andi	a5,a4,127
    37e6:	10078793          	addi	a5,a5,256
    37ea:	00074463          	bltz	a4,37f2 <permute_vnx128qi+0x1774>
    37ee:	abffe06f          	j	22ac <permute_vnx128qi+0x22e>
    37f2:	978a                	add	a5,a5,sp
    37f4:	2d07c783          	lbu	a5,720(a5)
    37f8:	00e60703          	lb	a4,14(a2)
    37fc:	0187979b          	slliw	a5,a5,0x18
    3800:	4187d79b          	sraiw	a5,a5,0x18
    3804:	f8be                	sd	a5,112(sp)
    3806:	07f77793          	andi	a5,a4,127
    380a:	10078793          	addi	a5,a5,256
    380e:	00074463          	bltz	a4,3816 <permute_vnx128qi+0x1798>
    3812:	abffe06f          	j	22d0 <permute_vnx128qi+0x252>
    3816:	978a                	add	a5,a5,sp
    3818:	2d07c783          	lbu	a5,720(a5)
    381c:	00f60703          	lb	a4,15(a2)
    3820:	0187979b          	slliw	a5,a5,0x18
    3824:	4187d79b          	sraiw	a5,a5,0x18
    3828:	fcbe                	sd	a5,120(sp)
    382a:	07f77793          	andi	a5,a4,127
    382e:	10078793          	addi	a5,a5,256
    3832:	00074463          	bltz	a4,383a <permute_vnx128qi+0x17bc>
    3836:	abffe06f          	j	22f4 <permute_vnx128qi+0x276>
    383a:	978a                	add	a5,a5,sp
    383c:	2d07c783          	lbu	a5,720(a5)
    3840:	01060703          	lb	a4,16(a2)
    3844:	0187979b          	slliw	a5,a5,0x18
    3848:	4187d79b          	sraiw	a5,a5,0x18
    384c:	e13e                	sd	a5,128(sp)
    384e:	07f77793          	andi	a5,a4,127
    3852:	10078793          	addi	a5,a5,256
    3856:	00074463          	bltz	a4,385e <permute_vnx128qi+0x17e0>
    385a:	abffe06f          	j	2318 <permute_vnx128qi+0x29a>
    385e:	978a                	add	a5,a5,sp
    3860:	2d07c783          	lbu	a5,720(a5)
    3864:	01160703          	lb	a4,17(a2)
    3868:	0187979b          	slliw	a5,a5,0x18
    386c:	4187d79b          	sraiw	a5,a5,0x18
    3870:	e53e                	sd	a5,136(sp)
    3872:	07f77793          	andi	a5,a4,127
    3876:	10078793          	addi	a5,a5,256
    387a:	00074463          	bltz	a4,3882 <permute_vnx128qi+0x1804>
    387e:	abffe06f          	j	233c <permute_vnx128qi+0x2be>
    3882:	978a                	add	a5,a5,sp
    3884:	2d07c783          	lbu	a5,720(a5)
    3888:	01260703          	lb	a4,18(a2)
    388c:	0187979b          	slliw	a5,a5,0x18
    3890:	4187d79b          	sraiw	a5,a5,0x18
    3894:	e93e                	sd	a5,144(sp)
    3896:	07f77793          	andi	a5,a4,127
    389a:	10078793          	addi	a5,a5,256
    389e:	00074463          	bltz	a4,38a6 <permute_vnx128qi+0x1828>
    38a2:	abffe06f          	j	2360 <permute_vnx128qi+0x2e2>
    38a6:	978a                	add	a5,a5,sp
    38a8:	2d07c783          	lbu	a5,720(a5)
    38ac:	01360703          	lb	a4,19(a2)
    38b0:	0187979b          	slliw	a5,a5,0x18
    38b4:	4187d79b          	sraiw	a5,a5,0x18
    38b8:	ed3e                	sd	a5,152(sp)
    38ba:	07f77793          	andi	a5,a4,127
    38be:	10078793          	addi	a5,a5,256
    38c2:	00074463          	bltz	a4,38ca <permute_vnx128qi+0x184c>
    38c6:	abffe06f          	j	2384 <permute_vnx128qi+0x306>
    38ca:	978a                	add	a5,a5,sp
    38cc:	2d07c783          	lbu	a5,720(a5)
    38d0:	01460703          	lb	a4,20(a2)
    38d4:	0187979b          	slliw	a5,a5,0x18
    38d8:	4187d79b          	sraiw	a5,a5,0x18
    38dc:	f13e                	sd	a5,160(sp)
    38de:	07f77793          	andi	a5,a4,127
    38e2:	10078793          	addi	a5,a5,256
    38e6:	00074463          	bltz	a4,38ee <permute_vnx128qi+0x1870>
    38ea:	abffe06f          	j	23a8 <permute_vnx128qi+0x32a>
    38ee:	978a                	add	a5,a5,sp
    38f0:	2d07c783          	lbu	a5,720(a5)
    38f4:	01560703          	lb	a4,21(a2)
    38f8:	0187979b          	slliw	a5,a5,0x18
    38fc:	4187d79b          	sraiw	a5,a5,0x18
    3900:	f53e                	sd	a5,168(sp)
    3902:	07f77793          	andi	a5,a4,127
    3906:	10078793          	addi	a5,a5,256
    390a:	00074463          	bltz	a4,3912 <permute_vnx128qi+0x1894>
    390e:	abffe06f          	j	23cc <permute_vnx128qi+0x34e>
    3912:	978a                	add	a5,a5,sp
    3914:	2d07c783          	lbu	a5,720(a5)
    3918:	01660703          	lb	a4,22(a2)
    391c:	0187979b          	slliw	a5,a5,0x18
    3920:	4187d79b          	sraiw	a5,a5,0x18
    3924:	f93e                	sd	a5,176(sp)
    3926:	07f77793          	andi	a5,a4,127
    392a:	10078793          	addi	a5,a5,256
    392e:	00074463          	bltz	a4,3936 <permute_vnx128qi+0x18b8>
    3932:	abffe06f          	j	23f0 <permute_vnx128qi+0x372>
    3936:	978a                	add	a5,a5,sp
    3938:	2d07c783          	lbu	a5,720(a5)
    393c:	01760703          	lb	a4,23(a2)
    3940:	0187979b          	slliw	a5,a5,0x18
    3944:	4187d79b          	sraiw	a5,a5,0x18
    3948:	fd3e                	sd	a5,184(sp)
    394a:	07f77793          	andi	a5,a4,127
    394e:	10078793          	addi	a5,a5,256
    3952:	00074463          	bltz	a4,395a <permute_vnx128qi+0x18dc>
    3956:	abffe06f          	j	2414 <permute_vnx128qi+0x396>
    395a:	978a                	add	a5,a5,sp
    395c:	2d07c783          	lbu	a5,720(a5)
    3960:	01860703          	lb	a4,24(a2)
    3964:	0187979b          	slliw	a5,a5,0x18
    3968:	4187d79b          	sraiw	a5,a5,0x18
    396c:	e1be                	sd	a5,192(sp)
    396e:	07f77793          	andi	a5,a4,127
    3972:	10078793          	addi	a5,a5,256
    3976:	00074463          	bltz	a4,397e <permute_vnx128qi+0x1900>
    397a:	abffe06f          	j	2438 <permute_vnx128qi+0x3ba>
    397e:	978a                	add	a5,a5,sp
    3980:	2d07c783          	lbu	a5,720(a5)
    3984:	01960703          	lb	a4,25(a2)
    3988:	0187979b          	slliw	a5,a5,0x18
    398c:	4187d79b          	sraiw	a5,a5,0x18
    3990:	e5be                	sd	a5,200(sp)
    3992:	07f77793          	andi	a5,a4,127
    3996:	10078793          	addi	a5,a5,256
    399a:	00074463          	bltz	a4,39a2 <permute_vnx128qi+0x1924>
    399e:	abffe06f          	j	245c <permute_vnx128qi+0x3de>
    39a2:	978a                	add	a5,a5,sp
    39a4:	2d07c783          	lbu	a5,720(a5)
    39a8:	01a60703          	lb	a4,26(a2)
    39ac:	0187979b          	slliw	a5,a5,0x18
    39b0:	4187d79b          	sraiw	a5,a5,0x18
    39b4:	e9be                	sd	a5,208(sp)
    39b6:	07f77793          	andi	a5,a4,127
    39ba:	10078793          	addi	a5,a5,256
    39be:	00074463          	bltz	a4,39c6 <permute_vnx128qi+0x1948>
    39c2:	abffe06f          	j	2480 <permute_vnx128qi+0x402>
    39c6:	978a                	add	a5,a5,sp
    39c8:	2d07c783          	lbu	a5,720(a5)
    39cc:	01b60703          	lb	a4,27(a2)
    39d0:	0187979b          	slliw	a5,a5,0x18
    39d4:	4187d79b          	sraiw	a5,a5,0x18
    39d8:	edbe                	sd	a5,216(sp)
    39da:	07f77793          	andi	a5,a4,127
    39de:	10078793          	addi	a5,a5,256
    39e2:	00074463          	bltz	a4,39ea <permute_vnx128qi+0x196c>
    39e6:	abffe06f          	j	24a4 <permute_vnx128qi+0x426>
    39ea:	978a                	add	a5,a5,sp
    39ec:	2d07c783          	lbu	a5,720(a5)
    39f0:	01c60703          	lb	a4,28(a2)
    39f4:	0187979b          	slliw	a5,a5,0x18
    39f8:	4187d79b          	sraiw	a5,a5,0x18
    39fc:	f1be                	sd	a5,224(sp)
    39fe:	07f77793          	andi	a5,a4,127
    3a02:	10078793          	addi	a5,a5,256
    3a06:	00074463          	bltz	a4,3a0e <permute_vnx128qi+0x1990>
    3a0a:	abffe06f          	j	24c8 <permute_vnx128qi+0x44a>
    3a0e:	978a                	add	a5,a5,sp
    3a10:	2d07c783          	lbu	a5,720(a5)
    3a14:	01d60703          	lb	a4,29(a2)
    3a18:	0187979b          	slliw	a5,a5,0x18
    3a1c:	4187d79b          	sraiw	a5,a5,0x18
    3a20:	f5be                	sd	a5,232(sp)
    3a22:	07f77793          	andi	a5,a4,127
    3a26:	10078793          	addi	a5,a5,256
    3a2a:	00074463          	bltz	a4,3a32 <permute_vnx128qi+0x19b4>
    3a2e:	abffe06f          	j	24ec <permute_vnx128qi+0x46e>
    3a32:	978a                	add	a5,a5,sp
    3a34:	2d07c783          	lbu	a5,720(a5)
    3a38:	01e60703          	lb	a4,30(a2)
    3a3c:	0187979b          	slliw	a5,a5,0x18
    3a40:	4187d79b          	sraiw	a5,a5,0x18
    3a44:	f9be                	sd	a5,240(sp)
    3a46:	07f77793          	andi	a5,a4,127
    3a4a:	10078793          	addi	a5,a5,256
    3a4e:	00074463          	bltz	a4,3a56 <permute_vnx128qi+0x19d8>
    3a52:	abffe06f          	j	2510 <permute_vnx128qi+0x492>
    3a56:	978a                	add	a5,a5,sp
    3a58:	2d07c783          	lbu	a5,720(a5)
    3a5c:	01f60703          	lb	a4,31(a2)
    3a60:	0187979b          	slliw	a5,a5,0x18
    3a64:	4187d79b          	sraiw	a5,a5,0x18
    3a68:	fdbe                	sd	a5,248(sp)
    3a6a:	07f77793          	andi	a5,a4,127
    3a6e:	10078793          	addi	a5,a5,256
    3a72:	00074463          	bltz	a4,3a7a <permute_vnx128qi+0x19fc>
    3a76:	abffe06f          	j	2534 <permute_vnx128qi+0x4b6>
    3a7a:	978a                	add	a5,a5,sp
    3a7c:	2d07c783          	lbu	a5,720(a5)
    3a80:	02060703          	lb	a4,32(a2)
    3a84:	0187979b          	slliw	a5,a5,0x18
    3a88:	4187d79b          	sraiw	a5,a5,0x18
    3a8c:	e23e                	sd	a5,256(sp)
    3a8e:	07f77793          	andi	a5,a4,127
    3a92:	10078793          	addi	a5,a5,256
    3a96:	00074463          	bltz	a4,3a9e <permute_vnx128qi+0x1a20>
    3a9a:	abffe06f          	j	2558 <permute_vnx128qi+0x4da>
    3a9e:	978a                	add	a5,a5,sp
    3aa0:	2d07c783          	lbu	a5,720(a5)
    3aa4:	02160703          	lb	a4,33(a2)
    3aa8:	0187979b          	slliw	a5,a5,0x18
    3aac:	4187d79b          	sraiw	a5,a5,0x18
    3ab0:	e63e                	sd	a5,264(sp)
    3ab2:	07f77793          	andi	a5,a4,127
    3ab6:	10078793          	addi	a5,a5,256
    3aba:	00074463          	bltz	a4,3ac2 <permute_vnx128qi+0x1a44>
    3abe:	abffe06f          	j	257c <permute_vnx128qi+0x4fe>
    3ac2:	978a                	add	a5,a5,sp
    3ac4:	2d07c783          	lbu	a5,720(a5)
    3ac8:	02260703          	lb	a4,34(a2)
    3acc:	0187979b          	slliw	a5,a5,0x18
    3ad0:	4187d79b          	sraiw	a5,a5,0x18
    3ad4:	ea3e                	sd	a5,272(sp)
    3ad6:	07f77793          	andi	a5,a4,127
    3ada:	10078793          	addi	a5,a5,256
    3ade:	00074463          	bltz	a4,3ae6 <permute_vnx128qi+0x1a68>
    3ae2:	abffe06f          	j	25a0 <permute_vnx128qi+0x522>
    3ae6:	978a                	add	a5,a5,sp
    3ae8:	2d07c783          	lbu	a5,720(a5)
    3aec:	02360703          	lb	a4,35(a2)
    3af0:	0187979b          	slliw	a5,a5,0x18
    3af4:	4187d79b          	sraiw	a5,a5,0x18
    3af8:	ee3e                	sd	a5,280(sp)
    3afa:	07f77793          	andi	a5,a4,127
    3afe:	10078793          	addi	a5,a5,256
    3b02:	00074463          	bltz	a4,3b0a <permute_vnx128qi+0x1a8c>
    3b06:	abffe06f          	j	25c4 <permute_vnx128qi+0x546>
    3b0a:	978a                	add	a5,a5,sp
    3b0c:	2d07c783          	lbu	a5,720(a5)
    3b10:	02460703          	lb	a4,36(a2)
    3b14:	0187979b          	slliw	a5,a5,0x18
    3b18:	4187d79b          	sraiw	a5,a5,0x18
    3b1c:	f23e                	sd	a5,288(sp)
    3b1e:	07f77793          	andi	a5,a4,127
    3b22:	10078793          	addi	a5,a5,256
    3b26:	00074463          	bltz	a4,3b2e <permute_vnx128qi+0x1ab0>
    3b2a:	abffe06f          	j	25e8 <permute_vnx128qi+0x56a>
    3b2e:	978a                	add	a5,a5,sp
    3b30:	2d07c783          	lbu	a5,720(a5)
    3b34:	02560703          	lb	a4,37(a2)
    3b38:	0187979b          	slliw	a5,a5,0x18
    3b3c:	4187d79b          	sraiw	a5,a5,0x18
    3b40:	f63e                	sd	a5,296(sp)
    3b42:	07f77793          	andi	a5,a4,127
    3b46:	10078793          	addi	a5,a5,256
    3b4a:	00074463          	bltz	a4,3b52 <permute_vnx128qi+0x1ad4>
    3b4e:	abffe06f          	j	260c <permute_vnx128qi+0x58e>
    3b52:	978a                	add	a5,a5,sp
    3b54:	2d07c783          	lbu	a5,720(a5)
    3b58:	02660703          	lb	a4,38(a2)
    3b5c:	0187979b          	slliw	a5,a5,0x18
    3b60:	4187d79b          	sraiw	a5,a5,0x18
    3b64:	fa3e                	sd	a5,304(sp)
    3b66:	07f77793          	andi	a5,a4,127
    3b6a:	10078793          	addi	a5,a5,256
    3b6e:	00074463          	bltz	a4,3b76 <permute_vnx128qi+0x1af8>
    3b72:	abffe06f          	j	2630 <permute_vnx128qi+0x5b2>
    3b76:	978a                	add	a5,a5,sp
    3b78:	2d07c783          	lbu	a5,720(a5)
    3b7c:	02760703          	lb	a4,39(a2)
    3b80:	0187979b          	slliw	a5,a5,0x18
    3b84:	4187d79b          	sraiw	a5,a5,0x18
    3b88:	fe3e                	sd	a5,312(sp)
    3b8a:	07f77793          	andi	a5,a4,127
    3b8e:	10078793          	addi	a5,a5,256
    3b92:	00074463          	bltz	a4,3b9a <permute_vnx128qi+0x1b1c>
    3b96:	abffe06f          	j	2654 <permute_vnx128qi+0x5d6>
    3b9a:	978a                	add	a5,a5,sp
    3b9c:	2d07c783          	lbu	a5,720(a5)
    3ba0:	02860703          	lb	a4,40(a2)
    3ba4:	0187979b          	slliw	a5,a5,0x18
    3ba8:	4187d79b          	sraiw	a5,a5,0x18
    3bac:	e2be                	sd	a5,320(sp)
    3bae:	07f77793          	andi	a5,a4,127
    3bb2:	10078793          	addi	a5,a5,256
    3bb6:	00074463          	bltz	a4,3bbe <permute_vnx128qi+0x1b40>
    3bba:	abffe06f          	j	2678 <permute_vnx128qi+0x5fa>
    3bbe:	978a                	add	a5,a5,sp
    3bc0:	2d07c783          	lbu	a5,720(a5)
    3bc4:	02960703          	lb	a4,41(a2)
    3bc8:	0187979b          	slliw	a5,a5,0x18
    3bcc:	4187d79b          	sraiw	a5,a5,0x18
    3bd0:	e6be                	sd	a5,328(sp)
    3bd2:	07f77793          	andi	a5,a4,127
    3bd6:	10078793          	addi	a5,a5,256
    3bda:	00074463          	bltz	a4,3be2 <permute_vnx128qi+0x1b64>
    3bde:	abffe06f          	j	269c <permute_vnx128qi+0x61e>
    3be2:	978a                	add	a5,a5,sp
    3be4:	2d07c783          	lbu	a5,720(a5)
    3be8:	02a60703          	lb	a4,42(a2)
    3bec:	0187979b          	slliw	a5,a5,0x18
    3bf0:	4187d79b          	sraiw	a5,a5,0x18
    3bf4:	eabe                	sd	a5,336(sp)
    3bf6:	07f77793          	andi	a5,a4,127
    3bfa:	10078793          	addi	a5,a5,256
    3bfe:	00074463          	bltz	a4,3c06 <permute_vnx128qi+0x1b88>
    3c02:	abffe06f          	j	26c0 <permute_vnx128qi+0x642>
    3c06:	978a                	add	a5,a5,sp
    3c08:	2d07c783          	lbu	a5,720(a5)
    3c0c:	02b60703          	lb	a4,43(a2)
    3c10:	0187979b          	slliw	a5,a5,0x18
    3c14:	4187d79b          	sraiw	a5,a5,0x18
    3c18:	eebe                	sd	a5,344(sp)
    3c1a:	07f77793          	andi	a5,a4,127
    3c1e:	10078793          	addi	a5,a5,256
    3c22:	00074463          	bltz	a4,3c2a <permute_vnx128qi+0x1bac>
    3c26:	abffe06f          	j	26e4 <permute_vnx128qi+0x666>
    3c2a:	978a                	add	a5,a5,sp
    3c2c:	2d07c783          	lbu	a5,720(a5)
    3c30:	02c60703          	lb	a4,44(a2)
    3c34:	0187979b          	slliw	a5,a5,0x18
    3c38:	4187d79b          	sraiw	a5,a5,0x18
    3c3c:	f2be                	sd	a5,352(sp)
    3c3e:	07f77793          	andi	a5,a4,127
    3c42:	10078793          	addi	a5,a5,256
    3c46:	00074463          	bltz	a4,3c4e <permute_vnx128qi+0x1bd0>
    3c4a:	abffe06f          	j	2708 <permute_vnx128qi+0x68a>
    3c4e:	978a                	add	a5,a5,sp
    3c50:	2d07c783          	lbu	a5,720(a5)
    3c54:	02d60703          	lb	a4,45(a2)
    3c58:	0187979b          	slliw	a5,a5,0x18
    3c5c:	4187d79b          	sraiw	a5,a5,0x18
    3c60:	f6be                	sd	a5,360(sp)
    3c62:	07f77793          	andi	a5,a4,127
    3c66:	10078793          	addi	a5,a5,256
    3c6a:	00074463          	bltz	a4,3c72 <permute_vnx128qi+0x1bf4>
    3c6e:	abffe06f          	j	272c <permute_vnx128qi+0x6ae>
    3c72:	978a                	add	a5,a5,sp
    3c74:	2d07c783          	lbu	a5,720(a5)
    3c78:	02e60703          	lb	a4,46(a2)
    3c7c:	0187979b          	slliw	a5,a5,0x18
    3c80:	4187d79b          	sraiw	a5,a5,0x18
    3c84:	fabe                	sd	a5,368(sp)
    3c86:	07f77793          	andi	a5,a4,127
    3c8a:	10078793          	addi	a5,a5,256
    3c8e:	00074463          	bltz	a4,3c96 <permute_vnx128qi+0x1c18>
    3c92:	abffe06f          	j	2750 <permute_vnx128qi+0x6d2>
    3c96:	978a                	add	a5,a5,sp
    3c98:	2d07c783          	lbu	a5,720(a5)
    3c9c:	02f60703          	lb	a4,47(a2)
    3ca0:	0187979b          	slliw	a5,a5,0x18
    3ca4:	4187d79b          	sraiw	a5,a5,0x18
    3ca8:	febe                	sd	a5,376(sp)
    3caa:	07f77793          	andi	a5,a4,127
    3cae:	10078793          	addi	a5,a5,256
    3cb2:	00074463          	bltz	a4,3cba <permute_vnx128qi+0x1c3c>
    3cb6:	abffe06f          	j	2774 <permute_vnx128qi+0x6f6>
    3cba:	978a                	add	a5,a5,sp
    3cbc:	2d07c783          	lbu	a5,720(a5)
    3cc0:	03060703          	lb	a4,48(a2)
    3cc4:	0187979b          	slliw	a5,a5,0x18
    3cc8:	4187d79b          	sraiw	a5,a5,0x18
    3ccc:	e33e                	sd	a5,384(sp)
    3cce:	07f77793          	andi	a5,a4,127
    3cd2:	10078793          	addi	a5,a5,256
    3cd6:	00074463          	bltz	a4,3cde <permute_vnx128qi+0x1c60>
    3cda:	abffe06f          	j	2798 <permute_vnx128qi+0x71a>
    3cde:	978a                	add	a5,a5,sp
    3ce0:	2d07c783          	lbu	a5,720(a5)
    3ce4:	03160703          	lb	a4,49(a2)
    3ce8:	0187979b          	slliw	a5,a5,0x18
    3cec:	4187d79b          	sraiw	a5,a5,0x18
    3cf0:	e73e                	sd	a5,392(sp)
    3cf2:	07f77793          	andi	a5,a4,127
    3cf6:	10078793          	addi	a5,a5,256
    3cfa:	00074463          	bltz	a4,3d02 <permute_vnx128qi+0x1c84>
    3cfe:	abffe06f          	j	27bc <permute_vnx128qi+0x73e>
    3d02:	978a                	add	a5,a5,sp
    3d04:	2d07c783          	lbu	a5,720(a5)
    3d08:	03260703          	lb	a4,50(a2)
    3d0c:	0187979b          	slliw	a5,a5,0x18
    3d10:	4187d79b          	sraiw	a5,a5,0x18
    3d14:	eb3e                	sd	a5,400(sp)
    3d16:	07f77793          	andi	a5,a4,127
    3d1a:	10078793          	addi	a5,a5,256
    3d1e:	00074463          	bltz	a4,3d26 <permute_vnx128qi+0x1ca8>
    3d22:	abffe06f          	j	27e0 <permute_vnx128qi+0x762>
    3d26:	978a                	add	a5,a5,sp
    3d28:	2d07c783          	lbu	a5,720(a5)
    3d2c:	03360703          	lb	a4,51(a2)
    3d30:	0187979b          	slliw	a5,a5,0x18
    3d34:	4187d79b          	sraiw	a5,a5,0x18
    3d38:	ef3e                	sd	a5,408(sp)
    3d3a:	07f77793          	andi	a5,a4,127
    3d3e:	10078793          	addi	a5,a5,256
    3d42:	00074463          	bltz	a4,3d4a <permute_vnx128qi+0x1ccc>
    3d46:	abffe06f          	j	2804 <permute_vnx128qi+0x786>
    3d4a:	978a                	add	a5,a5,sp
    3d4c:	2d07c783          	lbu	a5,720(a5)
    3d50:	03460703          	lb	a4,52(a2)
    3d54:	0187979b          	slliw	a5,a5,0x18
    3d58:	4187d79b          	sraiw	a5,a5,0x18
    3d5c:	f33e                	sd	a5,416(sp)
    3d5e:	07f77793          	andi	a5,a4,127
    3d62:	10078793          	addi	a5,a5,256
    3d66:	00074463          	bltz	a4,3d6e <permute_vnx128qi+0x1cf0>
    3d6a:	abffe06f          	j	2828 <permute_vnx128qi+0x7aa>
    3d6e:	978a                	add	a5,a5,sp
    3d70:	2d07c783          	lbu	a5,720(a5)
    3d74:	03560703          	lb	a4,53(a2)
    3d78:	0187979b          	slliw	a5,a5,0x18
    3d7c:	4187d79b          	sraiw	a5,a5,0x18
    3d80:	f73e                	sd	a5,424(sp)
    3d82:	07f77793          	andi	a5,a4,127
    3d86:	10078793          	addi	a5,a5,256
    3d8a:	00074463          	bltz	a4,3d92 <permute_vnx128qi+0x1d14>
    3d8e:	abffe06f          	j	284c <permute_vnx128qi+0x7ce>
    3d92:	978a                	add	a5,a5,sp
    3d94:	2d07c783          	lbu	a5,720(a5)
    3d98:	03660703          	lb	a4,54(a2)
    3d9c:	0187979b          	slliw	a5,a5,0x18
    3da0:	4187d79b          	sraiw	a5,a5,0x18
    3da4:	fb3e                	sd	a5,432(sp)
    3da6:	07f77793          	andi	a5,a4,127
    3daa:	10078793          	addi	a5,a5,256
    3dae:	00074463          	bltz	a4,3db6 <permute_vnx128qi+0x1d38>
    3db2:	abffe06f          	j	2870 <permute_vnx128qi+0x7f2>
    3db6:	978a                	add	a5,a5,sp
    3db8:	2d07c783          	lbu	a5,720(a5)
    3dbc:	03760703          	lb	a4,55(a2)
    3dc0:	0187979b          	slliw	a5,a5,0x18
    3dc4:	4187d79b          	sraiw	a5,a5,0x18
    3dc8:	ff3e                	sd	a5,440(sp)
    3dca:	07f77793          	andi	a5,a4,127
    3dce:	10078793          	addi	a5,a5,256
    3dd2:	00074463          	bltz	a4,3dda <permute_vnx128qi+0x1d5c>
    3dd6:	abffe06f          	j	2894 <permute_vnx128qi+0x816>
    3dda:	978a                	add	a5,a5,sp
    3ddc:	2d07c783          	lbu	a5,720(a5)
    3de0:	03860703          	lb	a4,56(a2)
    3de4:	0187979b          	slliw	a5,a5,0x18
    3de8:	4187d79b          	sraiw	a5,a5,0x18
    3dec:	e3be                	sd	a5,448(sp)
    3dee:	07f77793          	andi	a5,a4,127
    3df2:	10078793          	addi	a5,a5,256
    3df6:	00074463          	bltz	a4,3dfe <permute_vnx128qi+0x1d80>
    3dfa:	abffe06f          	j	28b8 <permute_vnx128qi+0x83a>
    3dfe:	978a                	add	a5,a5,sp
    3e00:	2d07c783          	lbu	a5,720(a5)
    3e04:	03960703          	lb	a4,57(a2)
    3e08:	0187979b          	slliw	a5,a5,0x18
    3e0c:	4187d79b          	sraiw	a5,a5,0x18
    3e10:	e7be                	sd	a5,456(sp)
    3e12:	07f77793          	andi	a5,a4,127
    3e16:	10078793          	addi	a5,a5,256
    3e1a:	00074463          	bltz	a4,3e22 <permute_vnx128qi+0x1da4>
    3e1e:	abffe06f          	j	28dc <permute_vnx128qi+0x85e>
    3e22:	978a                	add	a5,a5,sp
    3e24:	2d07c783          	lbu	a5,720(a5)
    3e28:	03a60703          	lb	a4,58(a2)
    3e2c:	0187979b          	slliw	a5,a5,0x18
    3e30:	4187d79b          	sraiw	a5,a5,0x18
    3e34:	ebbe                	sd	a5,464(sp)
    3e36:	07f77793          	andi	a5,a4,127
    3e3a:	10078793          	addi	a5,a5,256
    3e3e:	00074463          	bltz	a4,3e46 <permute_vnx128qi+0x1dc8>
    3e42:	abffe06f          	j	2900 <permute_vnx128qi+0x882>
    3e46:	978a                	add	a5,a5,sp
    3e48:	2d07c783          	lbu	a5,720(a5)
    3e4c:	03b60703          	lb	a4,59(a2)
    3e50:	0187979b          	slliw	a5,a5,0x18
    3e54:	4187d79b          	sraiw	a5,a5,0x18
    3e58:	efbe                	sd	a5,472(sp)
    3e5a:	07f77793          	andi	a5,a4,127
    3e5e:	10078793          	addi	a5,a5,256
    3e62:	00074463          	bltz	a4,3e6a <permute_vnx128qi+0x1dec>
    3e66:	abffe06f          	j	2924 <permute_vnx128qi+0x8a6>
    3e6a:	978a                	add	a5,a5,sp
    3e6c:	2d07c783          	lbu	a5,720(a5)
    3e70:	03c60703          	lb	a4,60(a2)
    3e74:	0187979b          	slliw	a5,a5,0x18
    3e78:	4187d79b          	sraiw	a5,a5,0x18
    3e7c:	f3be                	sd	a5,480(sp)
    3e7e:	07f77793          	andi	a5,a4,127
    3e82:	10078793          	addi	a5,a5,256
    3e86:	00074463          	bltz	a4,3e8e <permute_vnx128qi+0x1e10>
    3e8a:	abffe06f          	j	2948 <permute_vnx128qi+0x8ca>
    3e8e:	978a                	add	a5,a5,sp
    3e90:	2d07c783          	lbu	a5,720(a5)
    3e94:	03d60703          	lb	a4,61(a2)
    3e98:	0187979b          	slliw	a5,a5,0x18
    3e9c:	4187d79b          	sraiw	a5,a5,0x18
    3ea0:	f7be                	sd	a5,488(sp)
    3ea2:	07f77793          	andi	a5,a4,127
    3ea6:	10078793          	addi	a5,a5,256
    3eaa:	00074463          	bltz	a4,3eb2 <permute_vnx128qi+0x1e34>
    3eae:	abffe06f          	j	296c <permute_vnx128qi+0x8ee>
    3eb2:	978a                	add	a5,a5,sp
    3eb4:	2d07c783          	lbu	a5,720(a5)
    3eb8:	03e60703          	lb	a4,62(a2)
    3ebc:	0187979b          	slliw	a5,a5,0x18
    3ec0:	4187d79b          	sraiw	a5,a5,0x18
    3ec4:	fbbe                	sd	a5,496(sp)
    3ec6:	07f77793          	andi	a5,a4,127
    3eca:	10078793          	addi	a5,a5,256
    3ece:	00074463          	bltz	a4,3ed6 <permute_vnx128qi+0x1e58>
    3ed2:	abffe06f          	j	2990 <permute_vnx128qi+0x912>
    3ed6:	978a                	add	a5,a5,sp
    3ed8:	2d07c783          	lbu	a5,720(a5)
    3edc:	03f60703          	lb	a4,63(a2)
    3ee0:	0187979b          	slliw	a5,a5,0x18
    3ee4:	4187d79b          	sraiw	a5,a5,0x18
    3ee8:	ffbe                	sd	a5,504(sp)
    3eea:	07f77793          	andi	a5,a4,127
    3eee:	10078793          	addi	a5,a5,256
    3ef2:	00074463          	bltz	a4,3efa <permute_vnx128qi+0x1e7c>
    3ef6:	abffe06f          	j	29b4 <permute_vnx128qi+0x936>
    3efa:	978a                	add	a5,a5,sp
    3efc:	2d07c783          	lbu	a5,720(a5)
    3f00:	04060703          	lb	a4,64(a2)
    3f04:	0187979b          	slliw	a5,a5,0x18
    3f08:	4187d79b          	sraiw	a5,a5,0x18
    3f0c:	20f13023          	sd	a5,512(sp)
    3f10:	07f77793          	andi	a5,a4,127
    3f14:	10078793          	addi	a5,a5,256
    3f18:	00074463          	bltz	a4,3f20 <permute_vnx128qi+0x1ea2>
    3f1c:	abffe06f          	j	29da <permute_vnx128qi+0x95c>
    3f20:	978a                	add	a5,a5,sp
    3f22:	2d07c783          	lbu	a5,720(a5)
    3f26:	04160703          	lb	a4,65(a2)
    3f2a:	0187979b          	slliw	a5,a5,0x18
    3f2e:	4187d79b          	sraiw	a5,a5,0x18
    3f32:	20f13423          	sd	a5,520(sp)
    3f36:	07f77793          	andi	a5,a4,127
    3f3a:	10078793          	addi	a5,a5,256
    3f3e:	00074463          	bltz	a4,3f46 <permute_vnx128qi+0x1ec8>
    3f42:	abffe06f          	j	2a00 <permute_vnx128qi+0x982>
    3f46:	978a                	add	a5,a5,sp
    3f48:	2d07c783          	lbu	a5,720(a5)
    3f4c:	04260703          	lb	a4,66(a2)
    3f50:	0187979b          	slliw	a5,a5,0x18
    3f54:	4187d79b          	sraiw	a5,a5,0x18
    3f58:	20f13823          	sd	a5,528(sp)
    3f5c:	07f77793          	andi	a5,a4,127
    3f60:	10078793          	addi	a5,a5,256
    3f64:	00074463          	bltz	a4,3f6c <permute_vnx128qi+0x1eee>
    3f68:	abffe06f          	j	2a26 <permute_vnx128qi+0x9a8>
    3f6c:	978a                	add	a5,a5,sp
    3f6e:	2d07c783          	lbu	a5,720(a5)
    3f72:	04360703          	lb	a4,67(a2)
    3f76:	0187979b          	slliw	a5,a5,0x18
    3f7a:	4187d79b          	sraiw	a5,a5,0x18
    3f7e:	20f13c23          	sd	a5,536(sp)
    3f82:	07f77793          	andi	a5,a4,127
    3f86:	10078793          	addi	a5,a5,256
    3f8a:	00074463          	bltz	a4,3f92 <permute_vnx128qi+0x1f14>
    3f8e:	abffe06f          	j	2a4c <permute_vnx128qi+0x9ce>
    3f92:	978a                	add	a5,a5,sp
    3f94:	2d07c783          	lbu	a5,720(a5)
    3f98:	04460703          	lb	a4,68(a2)
    3f9c:	0187979b          	slliw	a5,a5,0x18
    3fa0:	4187d79b          	sraiw	a5,a5,0x18
    3fa4:	22f13023          	sd	a5,544(sp)
    3fa8:	07f77793          	andi	a5,a4,127
    3fac:	10078793          	addi	a5,a5,256
    3fb0:	00074463          	bltz	a4,3fb8 <permute_vnx128qi+0x1f3a>
    3fb4:	abffe06f          	j	2a72 <permute_vnx128qi+0x9f4>
    3fb8:	978a                	add	a5,a5,sp
    3fba:	2d07c783          	lbu	a5,720(a5)
    3fbe:	04560703          	lb	a4,69(a2)
    3fc2:	0187979b          	slliw	a5,a5,0x18
    3fc6:	4187d79b          	sraiw	a5,a5,0x18
    3fca:	22f13423          	sd	a5,552(sp)
    3fce:	07f77793          	andi	a5,a4,127
    3fd2:	10078793          	addi	a5,a5,256
    3fd6:	00074463          	bltz	a4,3fde <permute_vnx128qi+0x1f60>
    3fda:	abffe06f          	j	2a98 <permute_vnx128qi+0xa1a>
    3fde:	978a                	add	a5,a5,sp
    3fe0:	2d07c783          	lbu	a5,720(a5)
    3fe4:	04660703          	lb	a4,70(a2)
    3fe8:	0187979b          	slliw	a5,a5,0x18
    3fec:	4187d79b          	sraiw	a5,a5,0x18
    3ff0:	22f13823          	sd	a5,560(sp)
    3ff4:	07f77793          	andi	a5,a4,127
    3ff8:	10078793          	addi	a5,a5,256
    3ffc:	00074463          	bltz	a4,4004 <permute_vnx128qi+0x1f86>
    4000:	abffe06f          	j	2abe <permute_vnx128qi+0xa40>
    4004:	978a                	add	a5,a5,sp
    4006:	2d07c783          	lbu	a5,720(a5)
    400a:	04760703          	lb	a4,71(a2)
    400e:	0187979b          	slliw	a5,a5,0x18
    4012:	4187d79b          	sraiw	a5,a5,0x18
    4016:	22f13c23          	sd	a5,568(sp)
    401a:	07f77793          	andi	a5,a4,127
    401e:	10078793          	addi	a5,a5,256
    4022:	00074463          	bltz	a4,402a <permute_vnx128qi+0x1fac>
    4026:	abffe06f          	j	2ae4 <permute_vnx128qi+0xa66>
    402a:	978a                	add	a5,a5,sp
    402c:	2d07c783          	lbu	a5,720(a5)
    4030:	04860703          	lb	a4,72(a2)
    4034:	0187979b          	slliw	a5,a5,0x18
    4038:	4187d79b          	sraiw	a5,a5,0x18
    403c:	24f13023          	sd	a5,576(sp)
    4040:	07f77793          	andi	a5,a4,127
    4044:	10078793          	addi	a5,a5,256
    4048:	00074463          	bltz	a4,4050 <permute_vnx128qi+0x1fd2>
    404c:	abffe06f          	j	2b0a <permute_vnx128qi+0xa8c>
    4050:	978a                	add	a5,a5,sp
    4052:	2d07c783          	lbu	a5,720(a5)
    4056:	04960703          	lb	a4,73(a2)
    405a:	0187979b          	slliw	a5,a5,0x18
    405e:	4187d79b          	sraiw	a5,a5,0x18
    4062:	24f13423          	sd	a5,584(sp)
    4066:	07f77793          	andi	a5,a4,127
    406a:	10078793          	addi	a5,a5,256
    406e:	00074463          	bltz	a4,4076 <permute_vnx128qi+0x1ff8>
    4072:	abffe06f          	j	2b30 <permute_vnx128qi+0xab2>
    4076:	978a                	add	a5,a5,sp
    4078:	2d07c783          	lbu	a5,720(a5)
    407c:	04a60703          	lb	a4,74(a2)
    4080:	0187979b          	slliw	a5,a5,0x18
    4084:	4187d79b          	sraiw	a5,a5,0x18
    4088:	24f13823          	sd	a5,592(sp)
    408c:	07f77793          	andi	a5,a4,127
    4090:	10078793          	addi	a5,a5,256
    4094:	00074463          	bltz	a4,409c <permute_vnx128qi+0x201e>
    4098:	abffe06f          	j	2b56 <permute_vnx128qi+0xad8>
    409c:	978a                	add	a5,a5,sp
    409e:	2d07c783          	lbu	a5,720(a5)
    40a2:	04b60703          	lb	a4,75(a2)
    40a6:	0187979b          	slliw	a5,a5,0x18
    40aa:	4187d79b          	sraiw	a5,a5,0x18
    40ae:	24f13c23          	sd	a5,600(sp)
    40b2:	07f77793          	andi	a5,a4,127
    40b6:	10078793          	addi	a5,a5,256
    40ba:	00074463          	bltz	a4,40c2 <permute_vnx128qi+0x2044>
    40be:	abffe06f          	j	2b7c <permute_vnx128qi+0xafe>
    40c2:	978a                	add	a5,a5,sp
    40c4:	2d07c783          	lbu	a5,720(a5)
    40c8:	04c60703          	lb	a4,76(a2)
    40cc:	0187979b          	slliw	a5,a5,0x18
    40d0:	4187d79b          	sraiw	a5,a5,0x18
    40d4:	26f13023          	sd	a5,608(sp)
    40d8:	07f77793          	andi	a5,a4,127
    40dc:	10078793          	addi	a5,a5,256
    40e0:	00074463          	bltz	a4,40e8 <permute_vnx128qi+0x206a>
    40e4:	abffe06f          	j	2ba2 <permute_vnx128qi+0xb24>
    40e8:	978a                	add	a5,a5,sp
    40ea:	2d07c783          	lbu	a5,720(a5)
    40ee:	04d60703          	lb	a4,77(a2)
    40f2:	0187979b          	slliw	a5,a5,0x18
    40f6:	4187d79b          	sraiw	a5,a5,0x18
    40fa:	26f13423          	sd	a5,616(sp)
    40fe:	07f77793          	andi	a5,a4,127
    4102:	10078793          	addi	a5,a5,256
    4106:	00074463          	bltz	a4,410e <permute_vnx128qi+0x2090>
    410a:	abffe06f          	j	2bc8 <permute_vnx128qi+0xb4a>
    410e:	978a                	add	a5,a5,sp
    4110:	2d07c783          	lbu	a5,720(a5)
    4114:	04e60703          	lb	a4,78(a2)
    4118:	0187979b          	slliw	a5,a5,0x18
    411c:	4187d79b          	sraiw	a5,a5,0x18
    4120:	26f13823          	sd	a5,624(sp)
    4124:	07f77793          	andi	a5,a4,127
    4128:	10078793          	addi	a5,a5,256
    412c:	00074463          	bltz	a4,4134 <permute_vnx128qi+0x20b6>
    4130:	abffe06f          	j	2bee <permute_vnx128qi+0xb70>
    4134:	978a                	add	a5,a5,sp
    4136:	2d07c783          	lbu	a5,720(a5)
    413a:	04f60703          	lb	a4,79(a2)
    413e:	0187979b          	slliw	a5,a5,0x18
    4142:	4187d79b          	sraiw	a5,a5,0x18
    4146:	26f13c23          	sd	a5,632(sp)
    414a:	07f77793          	andi	a5,a4,127
    414e:	10078793          	addi	a5,a5,256
    4152:	00074463          	bltz	a4,415a <permute_vnx128qi+0x20dc>
    4156:	abffe06f          	j	2c14 <permute_vnx128qi+0xb96>
    415a:	978a                	add	a5,a5,sp
    415c:	2d07c783          	lbu	a5,720(a5)
    4160:	05060703          	lb	a4,80(a2)
    4164:	0187979b          	slliw	a5,a5,0x18
    4168:	4187d79b          	sraiw	a5,a5,0x18
    416c:	28f13023          	sd	a5,640(sp)
    4170:	07f77793          	andi	a5,a4,127
    4174:	10078793          	addi	a5,a5,256
    4178:	00074463          	bltz	a4,4180 <permute_vnx128qi+0x2102>
    417c:	abffe06f          	j	2c3a <permute_vnx128qi+0xbbc>
    4180:	978a                	add	a5,a5,sp
    4182:	2d07c783          	lbu	a5,720(a5)
    4186:	05160703          	lb	a4,81(a2)
    418a:	0187979b          	slliw	a5,a5,0x18
    418e:	4187d79b          	sraiw	a5,a5,0x18
    4192:	28f13423          	sd	a5,648(sp)
    4196:	07f77793          	andi	a5,a4,127
    419a:	10078793          	addi	a5,a5,256
    419e:	00074463          	bltz	a4,41a6 <permute_vnx128qi+0x2128>
    41a2:	abffe06f          	j	2c60 <permute_vnx128qi+0xbe2>
    41a6:	978a                	add	a5,a5,sp
    41a8:	2d07c783          	lbu	a5,720(a5)
    41ac:	05260703          	lb	a4,82(a2)
    41b0:	0187979b          	slliw	a5,a5,0x18
    41b4:	4187d79b          	sraiw	a5,a5,0x18
    41b8:	28f13823          	sd	a5,656(sp)
    41bc:	07f77793          	andi	a5,a4,127
    41c0:	10078793          	addi	a5,a5,256
    41c4:	00074463          	bltz	a4,41cc <permute_vnx128qi+0x214e>
    41c8:	abffe06f          	j	2c86 <permute_vnx128qi+0xc08>
    41cc:	978a                	add	a5,a5,sp
    41ce:	2d07c783          	lbu	a5,720(a5)
    41d2:	05360703          	lb	a4,83(a2)
    41d6:	0187979b          	slliw	a5,a5,0x18
    41da:	4187d79b          	sraiw	a5,a5,0x18
    41de:	28f13c23          	sd	a5,664(sp)
    41e2:	07f77793          	andi	a5,a4,127
    41e6:	10078793          	addi	a5,a5,256
    41ea:	00074463          	bltz	a4,41f2 <permute_vnx128qi+0x2174>
    41ee:	abffe06f          	j	2cac <permute_vnx128qi+0xc2e>
    41f2:	978a                	add	a5,a5,sp
    41f4:	2d07c783          	lbu	a5,720(a5)
    41f8:	05460703          	lb	a4,84(a2)
    41fc:	0187979b          	slliw	a5,a5,0x18
    4200:	4187d79b          	sraiw	a5,a5,0x18
    4204:	2af13023          	sd	a5,672(sp)
    4208:	07f77793          	andi	a5,a4,127
    420c:	10078793          	addi	a5,a5,256
    4210:	00074463          	bltz	a4,4218 <permute_vnx128qi+0x219a>
    4214:	abffe06f          	j	2cd2 <permute_vnx128qi+0xc54>
    4218:	978a                	add	a5,a5,sp
    421a:	2d07c783          	lbu	a5,720(a5)
    421e:	05560703          	lb	a4,85(a2)
    4222:	0187979b          	slliw	a5,a5,0x18
    4226:	4187d79b          	sraiw	a5,a5,0x18
    422a:	2af13423          	sd	a5,680(sp)
    422e:	07f77793          	andi	a5,a4,127
    4232:	10078793          	addi	a5,a5,256
    4236:	00074463          	bltz	a4,423e <permute_vnx128qi+0x21c0>
    423a:	abffe06f          	j	2cf8 <permute_vnx128qi+0xc7a>
    423e:	978a                	add	a5,a5,sp
    4240:	2d07c783          	lbu	a5,720(a5)
    4244:	05660703          	lb	a4,86(a2)
    4248:	0187979b          	slliw	a5,a5,0x18
    424c:	4187d79b          	sraiw	a5,a5,0x18
    4250:	2af13823          	sd	a5,688(sp)
    4254:	07f77793          	andi	a5,a4,127
    4258:	10078793          	addi	a5,a5,256
    425c:	00074463          	bltz	a4,4264 <permute_vnx128qi+0x21e6>
    4260:	abffe06f          	j	2d1e <permute_vnx128qi+0xca0>
    4264:	978a                	add	a5,a5,sp
    4266:	2d07c783          	lbu	a5,720(a5)
    426a:	05760703          	lb	a4,87(a2)
    426e:	0187979b          	slliw	a5,a5,0x18
    4272:	4187d79b          	sraiw	a5,a5,0x18
    4276:	2af13c23          	sd	a5,696(sp)
    427a:	07f77793          	andi	a5,a4,127
    427e:	10078793          	addi	a5,a5,256
    4282:	00074463          	bltz	a4,428a <permute_vnx128qi+0x220c>
    4286:	abffe06f          	j	2d44 <permute_vnx128qi+0xcc6>
    428a:	978a                	add	a5,a5,sp
    428c:	2d07c783          	lbu	a5,720(a5)
    4290:	05860703          	lb	a4,88(a2)
    4294:	0187979b          	slliw	a5,a5,0x18
    4298:	4187d79b          	sraiw	a5,a5,0x18
    429c:	2cf13023          	sd	a5,704(sp)
    42a0:	07f77793          	andi	a5,a4,127
    42a4:	10078793          	addi	a5,a5,256
    42a8:	00074463          	bltz	a4,42b0 <permute_vnx128qi+0x2232>
    42ac:	abffe06f          	j	2d6a <permute_vnx128qi+0xcec>
    42b0:	978a                	add	a5,a5,sp
    42b2:	2d07c783          	lbu	a5,720(a5)
    42b6:	05960703          	lb	a4,89(a2)
    42ba:	0187979b          	slliw	a5,a5,0x18
    42be:	4187d79b          	sraiw	a5,a5,0x18
    42c2:	2cf13423          	sd	a5,712(sp)
    42c6:	07f77793          	andi	a5,a4,127
    42ca:	10078793          	addi	a5,a5,256
    42ce:	00074463          	bltz	a4,42d6 <permute_vnx128qi+0x2258>
    42d2:	abffe06f          	j	2d90 <permute_vnx128qi+0xd12>
    42d6:	978a                	add	a5,a5,sp
    42d8:	2d07c783          	lbu	a5,720(a5)
    42dc:	05a60703          	lb	a4,90(a2)
    42e0:	0187979b          	slliw	a5,a5,0x18
    42e4:	4187d79b          	sraiw	a5,a5,0x18
    42e8:	2cf13823          	sd	a5,720(sp)
    42ec:	07f77793          	andi	a5,a4,127
    42f0:	10078793          	addi	a5,a5,256
    42f4:	00074463          	bltz	a4,42fc <permute_vnx128qi+0x227e>
    42f8:	abffe06f          	j	2db6 <permute_vnx128qi+0xd38>
    42fc:	978a                	add	a5,a5,sp
    42fe:	2d07c783          	lbu	a5,720(a5)
    4302:	05b60703          	lb	a4,91(a2)
    4306:	0187979b          	slliw	a5,a5,0x18
    430a:	4187d79b          	sraiw	a5,a5,0x18
    430e:	2cf13c23          	sd	a5,728(sp)
    4312:	07f77793          	andi	a5,a4,127
    4316:	10078793          	addi	a5,a5,256
    431a:	00074463          	bltz	a4,4322 <permute_vnx128qi+0x22a4>
    431e:	abffe06f          	j	2ddc <permute_vnx128qi+0xd5e>
    4322:	978a                	add	a5,a5,sp
    4324:	2d07c783          	lbu	a5,720(a5)
    4328:	05c60703          	lb	a4,92(a2)
    432c:	0187979b          	slliw	a5,a5,0x18
    4330:	4187d79b          	sraiw	a5,a5,0x18
    4334:	2ef13023          	sd	a5,736(sp)
    4338:	07f77793          	andi	a5,a4,127
    433c:	10078793          	addi	a5,a5,256
    4340:	00074463          	bltz	a4,4348 <permute_vnx128qi+0x22ca>
    4344:	abffe06f          	j	2e02 <permute_vnx128qi+0xd84>
    4348:	978a                	add	a5,a5,sp
    434a:	2d07c783          	lbu	a5,720(a5)
    434e:	05d60703          	lb	a4,93(a2)
    4352:	0187979b          	slliw	a5,a5,0x18
    4356:	4187d79b          	sraiw	a5,a5,0x18
    435a:	2ef13423          	sd	a5,744(sp)
    435e:	07f77793          	andi	a5,a4,127
    4362:	10078793          	addi	a5,a5,256
    4366:	00074463          	bltz	a4,436e <permute_vnx128qi+0x22f0>
    436a:	abffe06f          	j	2e28 <permute_vnx128qi+0xdaa>
    436e:	978a                	add	a5,a5,sp
    4370:	2d07c783          	lbu	a5,720(a5)
    4374:	05e60703          	lb	a4,94(a2)
    4378:	0187979b          	slliw	a5,a5,0x18
    437c:	4187d79b          	sraiw	a5,a5,0x18
    4380:	2ef13823          	sd	a5,752(sp)
    4384:	07f77793          	andi	a5,a4,127
    4388:	10078793          	addi	a5,a5,256
    438c:	00074463          	bltz	a4,4394 <permute_vnx128qi+0x2316>
    4390:	abffe06f          	j	2e4e <permute_vnx128qi+0xdd0>
    4394:	978a                	add	a5,a5,sp
    4396:	2d07c783          	lbu	a5,720(a5)
    439a:	05f60703          	lb	a4,95(a2)
    439e:	0187979b          	slliw	a5,a5,0x18
    43a2:	4187d79b          	sraiw	a5,a5,0x18
    43a6:	2ef13c23          	sd	a5,760(sp)
    43aa:	07f77793          	andi	a5,a4,127
    43ae:	10078793          	addi	a5,a5,256
    43b2:	00074463          	bltz	a4,43ba <permute_vnx128qi+0x233c>
    43b6:	abffe06f          	j	2e74 <permute_vnx128qi+0xdf6>
    43ba:	978a                	add	a5,a5,sp
    43bc:	2d07c783          	lbu	a5,720(a5)
    43c0:	06060703          	lb	a4,96(a2)
    43c4:	0187979b          	slliw	a5,a5,0x18
    43c8:	4187d79b          	sraiw	a5,a5,0x18
    43cc:	30f13023          	sd	a5,768(sp)
    43d0:	07f77793          	andi	a5,a4,127
    43d4:	10078793          	addi	a5,a5,256
    43d8:	00074463          	bltz	a4,43e0 <permute_vnx128qi+0x2362>
    43dc:	abffe06f          	j	2e9a <permute_vnx128qi+0xe1c>
    43e0:	978a                	add	a5,a5,sp
    43e2:	2d07c783          	lbu	a5,720(a5)
    43e6:	06160703          	lb	a4,97(a2)
    43ea:	0187979b          	slliw	a5,a5,0x18
    43ee:	4187d79b          	sraiw	a5,a5,0x18
    43f2:	30f13423          	sd	a5,776(sp)
    43f6:	07f77793          	andi	a5,a4,127
    43fa:	10078793          	addi	a5,a5,256
    43fe:	00074463          	bltz	a4,4406 <permute_vnx128qi+0x2388>
    4402:	abffe06f          	j	2ec0 <permute_vnx128qi+0xe42>
    4406:	978a                	add	a5,a5,sp
    4408:	2d07c783          	lbu	a5,720(a5)
    440c:	06260703          	lb	a4,98(a2)
    4410:	0187979b          	slliw	a5,a5,0x18
    4414:	4187d79b          	sraiw	a5,a5,0x18
    4418:	30f13823          	sd	a5,784(sp)
    441c:	07f77793          	andi	a5,a4,127
    4420:	10078793          	addi	a5,a5,256
    4424:	00074463          	bltz	a4,442c <permute_vnx128qi+0x23ae>
    4428:	abffe06f          	j	2ee6 <permute_vnx128qi+0xe68>
    442c:	978a                	add	a5,a5,sp
    442e:	2d07c783          	lbu	a5,720(a5)
    4432:	06360703          	lb	a4,99(a2)
    4436:	0187979b          	slliw	a5,a5,0x18
    443a:	4187d79b          	sraiw	a5,a5,0x18
    443e:	30f13c23          	sd	a5,792(sp)
    4442:	07f77793          	andi	a5,a4,127
    4446:	10078793          	addi	a5,a5,256
    444a:	00074463          	bltz	a4,4452 <permute_vnx128qi+0x23d4>
    444e:	abffe06f          	j	2f0c <permute_vnx128qi+0xe8e>
    4452:	978a                	add	a5,a5,sp
    4454:	2d07c783          	lbu	a5,720(a5)
    4458:	06460703          	lb	a4,100(a2)
    445c:	0187979b          	slliw	a5,a5,0x18
    4460:	4187d79b          	sraiw	a5,a5,0x18
    4464:	32f13023          	sd	a5,800(sp)
    4468:	07f77793          	andi	a5,a4,127
    446c:	10078793          	addi	a5,a5,256
    4470:	00074463          	bltz	a4,4478 <permute_vnx128qi+0x23fa>
    4474:	abffe06f          	j	2f32 <permute_vnx128qi+0xeb4>
    4478:	978a                	add	a5,a5,sp
    447a:	2d07c783          	lbu	a5,720(a5)
    447e:	06560703          	lb	a4,101(a2)
    4482:	0187979b          	slliw	a5,a5,0x18
    4486:	4187d79b          	sraiw	a5,a5,0x18
    448a:	32f13423          	sd	a5,808(sp)
    448e:	07f77793          	andi	a5,a4,127
    4492:	10078793          	addi	a5,a5,256
    4496:	00074463          	bltz	a4,449e <permute_vnx128qi+0x2420>
    449a:	abffe06f          	j	2f58 <permute_vnx128qi+0xeda>
    449e:	978a                	add	a5,a5,sp
    44a0:	2d07cd83          	lbu	s11,720(a5)
    44a4:	06660703          	lb	a4,102(a2)
    44a8:	018d9d9b          	slliw	s11,s11,0x18
    44ac:	07f77793          	andi	a5,a4,127
    44b0:	418ddd9b          	sraiw	s11,s11,0x18
    44b4:	10078793          	addi	a5,a5,256
    44b8:	00074463          	bltz	a4,44c0 <permute_vnx128qi+0x2442>
    44bc:	abffe06f          	j	2f7a <permute_vnx128qi+0xefc>
    44c0:	978a                	add	a5,a5,sp
    44c2:	2d07c783          	lbu	a5,720(a5)
    44c6:	06760703          	lb	a4,103(a2)
    44ca:	0187979b          	slliw	a5,a5,0x18
    44ce:	4187d79b          	sraiw	a5,a5,0x18
    44d2:	32f13823          	sd	a5,816(sp)
    44d6:	07f77793          	andi	a5,a4,127
    44da:	10078793          	addi	a5,a5,256
    44de:	00074463          	bltz	a4,44e6 <permute_vnx128qi+0x2468>
    44e2:	abffe06f          	j	2fa0 <permute_vnx128qi+0xf22>
    44e6:	978a                	add	a5,a5,sp
    44e8:	2d07c783          	lbu	a5,720(a5)
    44ec:	06860703          	lb	a4,104(a2)
    44f0:	0187979b          	slliw	a5,a5,0x18
    44f4:	4187d79b          	sraiw	a5,a5,0x18
    44f8:	32f13c23          	sd	a5,824(sp)
    44fc:	07f77793          	andi	a5,a4,127
    4500:	10078793          	addi	a5,a5,256
    4504:	00074463          	bltz	a4,450c <permute_vnx128qi+0x248e>
    4508:	abffe06f          	j	2fc6 <permute_vnx128qi+0xf48>
    450c:	978a                	add	a5,a5,sp
    450e:	2d07cd03          	lbu	s10,720(a5)
    4512:	06960703          	lb	a4,105(a2)
    4516:	018d1d1b          	slliw	s10,s10,0x18
    451a:	07f77793          	andi	a5,a4,127
    451e:	418d5d1b          	sraiw	s10,s10,0x18
    4522:	10078793          	addi	a5,a5,256
    4526:	00074463          	bltz	a4,452e <permute_vnx128qi+0x24b0>
    452a:	abffe06f          	j	2fe8 <permute_vnx128qi+0xf6a>
    452e:	978a                	add	a5,a5,sp
    4530:	2d07cc83          	lbu	s9,720(a5)
    4534:	06a60703          	lb	a4,106(a2)
    4538:	018c9c9b          	slliw	s9,s9,0x18
    453c:	07f77793          	andi	a5,a4,127
    4540:	418cdc9b          	sraiw	s9,s9,0x18
    4544:	10078793          	addi	a5,a5,256
    4548:	00074463          	bltz	a4,4550 <permute_vnx128qi+0x24d2>
    454c:	abffe06f          	j	300a <permute_vnx128qi+0xf8c>
    4550:	978a                	add	a5,a5,sp
    4552:	2d07cc03          	lbu	s8,720(a5)
    4556:	06b60703          	lb	a4,107(a2)
    455a:	018c1c1b          	slliw	s8,s8,0x18
    455e:	07f77793          	andi	a5,a4,127
    4562:	418c5c1b          	sraiw	s8,s8,0x18
    4566:	10078793          	addi	a5,a5,256
    456a:	00074463          	bltz	a4,4572 <permute_vnx128qi+0x24f4>
    456e:	abffe06f          	j	302c <permute_vnx128qi+0xfae>
    4572:	978a                	add	a5,a5,sp
    4574:	2d07cb83          	lbu	s7,720(a5)
    4578:	06c60703          	lb	a4,108(a2)
    457c:	018b9b9b          	slliw	s7,s7,0x18
    4580:	07f77793          	andi	a5,a4,127
    4584:	418bdb9b          	sraiw	s7,s7,0x18
    4588:	10078793          	addi	a5,a5,256
    458c:	00074463          	bltz	a4,4594 <permute_vnx128qi+0x2516>
    4590:	abffe06f          	j	304e <permute_vnx128qi+0xfd0>
    4594:	978a                	add	a5,a5,sp
    4596:	2d07cb03          	lbu	s6,720(a5)
    459a:	06d60703          	lb	a4,109(a2)
    459e:	018b1b1b          	slliw	s6,s6,0x18
    45a2:	07f77793          	andi	a5,a4,127
    45a6:	418b5b1b          	sraiw	s6,s6,0x18
    45aa:	10078793          	addi	a5,a5,256
    45ae:	00074463          	bltz	a4,45b6 <permute_vnx128qi+0x2538>
    45b2:	abffe06f          	j	3070 <permute_vnx128qi+0xff2>
    45b6:	978a                	add	a5,a5,sp
    45b8:	2d07ca83          	lbu	s5,720(a5)
    45bc:	06e60703          	lb	a4,110(a2)
    45c0:	018a9a9b          	slliw	s5,s5,0x18
    45c4:	07f77793          	andi	a5,a4,127
    45c8:	418ada9b          	sraiw	s5,s5,0x18
    45cc:	10078793          	addi	a5,a5,256
    45d0:	00074463          	bltz	a4,45d8 <permute_vnx128qi+0x255a>
    45d4:	abffe06f          	j	3092 <permute_vnx128qi+0x1014>
    45d8:	978a                	add	a5,a5,sp
    45da:	2d07ca03          	lbu	s4,720(a5)
    45de:	06f60703          	lb	a4,111(a2)
    45e2:	018a1a1b          	slliw	s4,s4,0x18
    45e6:	07f77793          	andi	a5,a4,127
    45ea:	418a5a1b          	sraiw	s4,s4,0x18
    45ee:	10078793          	addi	a5,a5,256
    45f2:	00074463          	bltz	a4,45fa <permute_vnx128qi+0x257c>
    45f6:	abffe06f          	j	30b4 <permute_vnx128qi+0x1036>
    45fa:	978a                	add	a5,a5,sp
    45fc:	2d07c983          	lbu	s3,720(a5)
    4600:	07060703          	lb	a4,112(a2)
    4604:	0189999b          	slliw	s3,s3,0x18
    4608:	07f77793          	andi	a5,a4,127
    460c:	4189d99b          	sraiw	s3,s3,0x18
    4610:	10078793          	addi	a5,a5,256
    4614:	00074463          	bltz	a4,461c <permute_vnx128qi+0x259e>
    4618:	abffe06f          	j	30d6 <permute_vnx128qi+0x1058>
    461c:	978a                	add	a5,a5,sp
    461e:	2d07c903          	lbu	s2,720(a5)
    4622:	07160703          	lb	a4,113(a2)
    4626:	0189191b          	slliw	s2,s2,0x18
    462a:	07f77793          	andi	a5,a4,127
    462e:	4189591b          	sraiw	s2,s2,0x18
    4632:	10078793          	addi	a5,a5,256
    4636:	00074463          	bltz	a4,463e <permute_vnx128qi+0x25c0>
    463a:	abffe06f          	j	30f8 <permute_vnx128qi+0x107a>
    463e:	978a                	add	a5,a5,sp
    4640:	2d07c483          	lbu	s1,720(a5)
    4644:	07260703          	lb	a4,114(a2)
    4648:	0184949b          	slliw	s1,s1,0x18
    464c:	07f77793          	andi	a5,a4,127
    4650:	4184d49b          	sraiw	s1,s1,0x18
    4654:	10078793          	addi	a5,a5,256
    4658:	00074463          	bltz	a4,4660 <permute_vnx128qi+0x25e2>
    465c:	abffe06f          	j	311a <permute_vnx128qi+0x109c>
    4660:	978a                	add	a5,a5,sp
    4662:	2d07c403          	lbu	s0,720(a5)
    4666:	07360703          	lb	a4,115(a2)
    466a:	0184141b          	slliw	s0,s0,0x18
    466e:	07f77793          	andi	a5,a4,127
    4672:	4184541b          	sraiw	s0,s0,0x18
    4676:	10078793          	addi	a5,a5,256
    467a:	00074463          	bltz	a4,4682 <permute_vnx128qi+0x2604>
    467e:	abffe06f          	j	313c <permute_vnx128qi+0x10be>
    4682:	978a                	add	a5,a5,sp
    4684:	2d07c383          	lbu	t2,720(a5)
    4688:	07460703          	lb	a4,116(a2)
    468c:	0183939b          	slliw	t2,t2,0x18
    4690:	07f77793          	andi	a5,a4,127
    4694:	4183d39b          	sraiw	t2,t2,0x18
    4698:	10078793          	addi	a5,a5,256
    469c:	00074463          	bltz	a4,46a4 <permute_vnx128qi+0x2626>
    46a0:	abffe06f          	j	315e <permute_vnx128qi+0x10e0>
    46a4:	978a                	add	a5,a5,sp
    46a6:	2d07c283          	lbu	t0,720(a5)
    46aa:	07560703          	lb	a4,117(a2)
    46ae:	0182929b          	slliw	t0,t0,0x18
    46b2:	07f77793          	andi	a5,a4,127
    46b6:	4182d29b          	sraiw	t0,t0,0x18
    46ba:	10078793          	addi	a5,a5,256
    46be:	00074463          	bltz	a4,46c6 <permute_vnx128qi+0x2648>
    46c2:	abffe06f          	j	3180 <permute_vnx128qi+0x1102>
    46c6:	978a                	add	a5,a5,sp
    46c8:	2d07cf83          	lbu	t6,720(a5)
    46cc:	07660703          	lb	a4,118(a2)
    46d0:	018f9f9b          	slliw	t6,t6,0x18
    46d4:	07f77793          	andi	a5,a4,127
    46d8:	418fdf9b          	sraiw	t6,t6,0x18
    46dc:	10078793          	addi	a5,a5,256
    46e0:	00074463          	bltz	a4,46e8 <permute_vnx128qi+0x266a>
    46e4:	abffe06f          	j	31a2 <permute_vnx128qi+0x1124>
    46e8:	978a                	add	a5,a5,sp
    46ea:	2d07cf03          	lbu	t5,720(a5)
    46ee:	07760703          	lb	a4,119(a2)
    46f2:	018f1f1b          	slliw	t5,t5,0x18
    46f6:	07f77793          	andi	a5,a4,127
    46fa:	418f5f1b          	sraiw	t5,t5,0x18
    46fe:	10078793          	addi	a5,a5,256
    4702:	00074463          	bltz	a4,470a <permute_vnx128qi+0x268c>
    4706:	abffe06f          	j	31c4 <permute_vnx128qi+0x1146>
    470a:	978a                	add	a5,a5,sp
    470c:	2d07ce83          	lbu	t4,720(a5)
    4710:	07860703          	lb	a4,120(a2)
    4714:	018e9e9b          	slliw	t4,t4,0x18
    4718:	07f77793          	andi	a5,a4,127
    471c:	418ede9b          	sraiw	t4,t4,0x18
    4720:	10078793          	addi	a5,a5,256
    4724:	00074463          	bltz	a4,472c <permute_vnx128qi+0x26ae>
    4728:	abffe06f          	j	31e6 <permute_vnx128qi+0x1168>
    472c:	978a                	add	a5,a5,sp
    472e:	2d07ce03          	lbu	t3,720(a5)
    4732:	07960703          	lb	a4,121(a2)
    4736:	018e1e1b          	slliw	t3,t3,0x18
    473a:	07f77793          	andi	a5,a4,127
    473e:	418e5e1b          	sraiw	t3,t3,0x18
    4742:	10078793          	addi	a5,a5,256
    4746:	00074463          	bltz	a4,474e <permute_vnx128qi+0x26d0>
    474a:	abffe06f          	j	3208 <permute_vnx128qi+0x118a>
    474e:	978a                	add	a5,a5,sp
    4750:	2d07c303          	lbu	t1,720(a5)
    4754:	07a60703          	lb	a4,122(a2)
    4758:	0183131b          	slliw	t1,t1,0x18
    475c:	07f77793          	andi	a5,a4,127
    4760:	4183531b          	sraiw	t1,t1,0x18
    4764:	10078793          	addi	a5,a5,256
    4768:	00074463          	bltz	a4,4770 <permute_vnx128qi+0x26f2>
    476c:	abffe06f          	j	322a <permute_vnx128qi+0x11ac>
    4770:	978a                	add	a5,a5,sp
    4772:	2d07c883          	lbu	a7,720(a5)
    4776:	07b60703          	lb	a4,123(a2)
    477a:	0188989b          	slliw	a7,a7,0x18
    477e:	07f77793          	andi	a5,a4,127
    4782:	4188d89b          	sraiw	a7,a7,0x18
    4786:	10078793          	addi	a5,a5,256
    478a:	00074463          	bltz	a4,4792 <permute_vnx128qi+0x2714>
    478e:	abffe06f          	j	324c <permute_vnx128qi+0x11ce>
    4792:	978a                	add	a5,a5,sp
    4794:	2d07c803          	lbu	a6,720(a5)
    4798:	07c60703          	lb	a4,124(a2)
    479c:	0188181b          	slliw	a6,a6,0x18
    47a0:	07f77793          	andi	a5,a4,127
    47a4:	4188581b          	sraiw	a6,a6,0x18
    47a8:	10078793          	addi	a5,a5,256
    47ac:	00074463          	bltz	a4,47b4 <permute_vnx128qi+0x2736>
    47b0:	abffe06f          	j	326e <permute_vnx128qi+0x11f0>
    47b4:	978a                	add	a5,a5,sp
    47b6:	2d07c503          	lbu	a0,720(a5)
    47ba:	07d60703          	lb	a4,125(a2)
    47be:	0185151b          	slliw	a0,a0,0x18
    47c2:	07f77793          	andi	a5,a4,127
    47c6:	4185551b          	sraiw	a0,a0,0x18
    47ca:	10078793          	addi	a5,a5,256
    47ce:	00074463          	bltz	a4,47d6 <permute_vnx128qi+0x2758>
    47d2:	abffe06f          	j	3290 <permute_vnx128qi+0x1212>
    47d6:	978a                	add	a5,a5,sp
    47d8:	2d07c583          	lbu	a1,720(a5)
    47dc:	07e60703          	lb	a4,126(a2)
    47e0:	0185959b          	slliw	a1,a1,0x18
    47e4:	07f77793          	andi	a5,a4,127
    47e8:	4185d59b          	sraiw	a1,a1,0x18
    47ec:	10078793          	addi	a5,a5,256
    47f0:	00074463          	bltz	a4,47f8 <permute_vnx128qi+0x277a>
    47f4:	abffe06f          	j	32b2 <permute_vnx128qi+0x1234>
    47f8:	978a                	add	a5,a5,sp
    47fa:	2d07c703          	lbu	a4,720(a5)
    47fe:	07f60603          	lb	a2,127(a2)
    4802:	0187171b          	slliw	a4,a4,0x18
    4806:	07f67793          	andi	a5,a2,127
    480a:	4187571b          	sraiw	a4,a4,0x18
    480e:	10078793          	addi	a5,a5,256
    4812:	00064463          	bltz	a2,481a <permute_vnx128qi+0x279c>
    4816:	abffe06f          	j	32d4 <permute_vnx128qi+0x1256>
    481a:	978a                	add	a5,a5,sp
    481c:	2d07c783          	lbu	a5,720(a5)
    4820:	6622                	ld	a2,8(sp)
    4822:	0187979b          	slliw	a5,a5,0x18
    4826:	4187d79b          	sraiw	a5,a5,0x18
    482a:	00064463          	bltz	a2,4832 <permute_vnx128qi+0x27b4>
    482e:	abffe06f          	j	32ec <permute_vnx128qi+0x126e>
    4832:	34813603          	ld	a2,840(sp)
    4836:	f8064603          	lbu	a2,-128(a2)
    483a:	ab7fe06f          	j	32f0 <permute_vnx128qi+0x1272>

000000000000483e <permute_vnx2hi>:
    483e:	1141                	addi	sp,sp,-16
    4840:	c4e17057          	vsetivli	zero,2,e16,mf4,ta,mu
    4844:	c432                	sw	a2,8(sp)
    4846:	003c                	addi	a5,sp,8
    4848:	0207d087          	vle16.v	v1,(a5)
    484c:	c42a                	sw	a0,8(sp)
    484e:	0207d187          	vle16.v	v3,(a5)
    4852:	c62e                	sw	a1,12(sp)
    4854:	007c                	addi	a5,sp,12
    4856:	2611b0d7          	vand.vi	v1,v1,3
    485a:	32308157          	vrgather.vv	v2,v3,v1
    485e:	0207d187          	vle16.v	v3,(a5)
    4862:	7a10b057          	vmsgtu.vi	v0,v1,1
    4866:	021f30d7          	vadd.vi	v1,v1,-2
    486a:	30308157          	vrgather.vv	v2,v3,v1,v0.t
    486e:	0206d127          	vse16.v	v2,(a3)
    4872:	0141                	addi	sp,sp,16
    4874:	8082                	ret

0000000000004876 <permute_vnx4hi>:
    4876:	1141                	addi	sp,sp,-16
    4878:	c4f27057          	vsetivli	zero,4,e16,mf2,ta,mu
    487c:	e032                	sd	a2,0(sp)
    487e:	02015087          	vle16.v	v1,(sp)
    4882:	e02a                	sd	a0,0(sp)
    4884:	02015187          	vle16.v	v3,(sp)
    4888:	e42e                	sd	a1,8(sp)
    488a:	003c                	addi	a5,sp,8
    488c:	2613b0d7          	vand.vi	v1,v1,7
    4890:	32308157          	vrgather.vv	v2,v3,v1
    4894:	0207d187          	vle16.v	v3,(a5)
    4898:	7a11b057          	vmsgtu.vi	v0,v1,3
    489c:	021e30d7          	vadd.vi	v1,v1,-4
    48a0:	30308157          	vrgather.vv	v2,v3,v1,v0.t
    48a4:	0206d127          	vse16.v	v2,(a3)
    48a8:	0141                	addi	sp,sp,16
    48aa:	8082                	ret

00000000000048ac <permute_vnx8hi>:
    48ac:	1141                	addi	sp,sp,-16
    48ae:	c4847057          	vsetivli	zero,8,e16,m1,ta,mu
    48b2:	e03a                	sd	a4,0(sp)
    48b4:	e43e                	sd	a5,8(sp)
    48b6:	02015087          	vle16.v	v1,(sp)
    48ba:	e02a                	sd	a0,0(sp)
    48bc:	e42e                	sd	a1,8(sp)
    48be:	02015187          	vle16.v	v3,(sp)
    48c2:	e032                	sd	a2,0(sp)
    48c4:	e436                	sd	a3,8(sp)
    48c6:	2617b0d7          	vand.vi	v1,v1,15
    48ca:	32308157          	vrgather.vv	v2,v3,v1
    48ce:	02015187          	vle16.v	v3,(sp)
    48d2:	7a13b057          	vmsgtu.vi	v0,v1,7
    48d6:	021c30d7          	vadd.vi	v1,v1,-8
    48da:	30308157          	vrgather.vv	v2,v3,v1,v0.t
    48de:	02085127          	vse16.v	v2,(a6)
    48e2:	0141                	addi	sp,sp,16
    48e4:	8082                	ret

00000000000048e6 <permute_vnx16hi>:
    48e6:	cdb27057          	vsetivli	zero,4,e64,m8,ta,ma
    48ea:	02057407          	vle64.v	v8,(a0)
    48ee:	7119                	addi	sp,sp,-128
    48f0:	e8d6                	sd	s5,80(sp)
    48f2:	fca2                	sd	s0,120(sp)
    48f4:	f8a6                	sd	s1,112(sp)
    48f6:	f4ca                	sd	s2,104(sp)
    48f8:	f0ce                	sd	s3,96(sp)
    48fa:	ecd2                	sd	s4,88(sp)
    48fc:	e4da                	sd	s6,72(sp)
    48fe:	00061503          	lh	a0,0(a2)
    4902:	02017427          	vse64.v	v8,(sp)
    4906:	1018                	addi	a4,sp,32
    4908:	00f57813          	andi	a6,a0,15
    490c:	0806                	slli	a6,a6,0x1
    490e:	878a                	mv	a5,sp
    4910:	0205f407          	vle64.v	v8,(a1)
    4914:	010105b3          	add	a1,sp,a6
    4918:	00059a83          	lh	s5,0(a1)
    491c:	00261583          	lh	a1,2(a2)
    4920:	02077427          	vse64.v	v8,(a4)
    4924:	0045d893          	srli	a7,a1,0x4
    4928:	0018f893          	andi	a7,a7,1
    492c:	89bd                	andi	a1,a1,15
    492e:	0586                	slli	a1,a1,0x1
    4930:	2a089e63          	bnez	a7,4bec <permute_vnx16hi+0x306>
    4934:	958a                	add	a1,a1,sp
    4936:	0005da03          	lhu	s4,0(a1)
    493a:	00461583          	lh	a1,4(a2)
    493e:	010a1a1b          	slliw	s4,s4,0x10
    4942:	410a5a1b          	sraiw	s4,s4,0x10
    4946:	0045d893          	srli	a7,a1,0x4
    494a:	0018f893          	andi	a7,a7,1
    494e:	89bd                	andi	a1,a1,15
    4950:	0586                	slli	a1,a1,0x1
    4952:	28089963          	bnez	a7,4be4 <permute_vnx16hi+0x2fe>
    4956:	95be                	add	a1,a1,a5
    4958:	0005d983          	lhu	s3,0(a1)
    495c:	00661583          	lh	a1,6(a2)
    4960:	0109999b          	slliw	s3,s3,0x10
    4964:	4109d99b          	sraiw	s3,s3,0x10
    4968:	0045d893          	srli	a7,a1,0x4
    496c:	0018f893          	andi	a7,a7,1
    4970:	89bd                	andi	a1,a1,15
    4972:	0586                	slli	a1,a1,0x1
    4974:	26089463          	bnez	a7,4bdc <permute_vnx16hi+0x2f6>
    4978:	95be                	add	a1,a1,a5
    497a:	0005d903          	lhu	s2,0(a1)
    497e:	00861583          	lh	a1,8(a2)
    4982:	0109191b          	slliw	s2,s2,0x10
    4986:	4109591b          	sraiw	s2,s2,0x10
    498a:	0045d893          	srli	a7,a1,0x4
    498e:	0018f893          	andi	a7,a7,1
    4992:	89bd                	andi	a1,a1,15
    4994:	0586                	slli	a1,a1,0x1
    4996:	22089f63          	bnez	a7,4bd4 <permute_vnx16hi+0x2ee>
    499a:	95be                	add	a1,a1,a5
    499c:	0005d483          	lhu	s1,0(a1)
    49a0:	00a61583          	lh	a1,10(a2)
    49a4:	0104949b          	slliw	s1,s1,0x10
    49a8:	4104d49b          	sraiw	s1,s1,0x10
    49ac:	0045d893          	srli	a7,a1,0x4
    49b0:	0018f893          	andi	a7,a7,1
    49b4:	89bd                	andi	a1,a1,15
    49b6:	0586                	slli	a1,a1,0x1
    49b8:	20089a63          	bnez	a7,4bcc <permute_vnx16hi+0x2e6>
    49bc:	95be                	add	a1,a1,a5
    49be:	0005d403          	lhu	s0,0(a1)
    49c2:	00c61583          	lh	a1,12(a2)
    49c6:	0104141b          	slliw	s0,s0,0x10
    49ca:	4104541b          	sraiw	s0,s0,0x10
    49ce:	0045d893          	srli	a7,a1,0x4
    49d2:	0018f893          	andi	a7,a7,1
    49d6:	89bd                	andi	a1,a1,15
    49d8:	0586                	slli	a1,a1,0x1
    49da:	1e089563          	bnez	a7,4bc4 <permute_vnx16hi+0x2de>
    49de:	95be                	add	a1,a1,a5
    49e0:	0005d383          	lhu	t2,0(a1)
    49e4:	00e61583          	lh	a1,14(a2)
    49e8:	0103939b          	slliw	t2,t2,0x10
    49ec:	4103d39b          	sraiw	t2,t2,0x10
    49f0:	0045d893          	srli	a7,a1,0x4
    49f4:	0018f893          	andi	a7,a7,1
    49f8:	89bd                	andi	a1,a1,15
    49fa:	0586                	slli	a1,a1,0x1
    49fc:	1c089063          	bnez	a7,4bbc <permute_vnx16hi+0x2d6>
    4a00:	95be                	add	a1,a1,a5
    4a02:	0005d283          	lhu	t0,0(a1)
    4a06:	01061583          	lh	a1,16(a2)
    4a0a:	0102929b          	slliw	t0,t0,0x10
    4a0e:	4102d29b          	sraiw	t0,t0,0x10
    4a12:	0045d893          	srli	a7,a1,0x4
    4a16:	0018f893          	andi	a7,a7,1
    4a1a:	89bd                	andi	a1,a1,15
    4a1c:	0586                	slli	a1,a1,0x1
    4a1e:	18089b63          	bnez	a7,4bb4 <permute_vnx16hi+0x2ce>
    4a22:	95be                	add	a1,a1,a5
    4a24:	0005df83          	lhu	t6,0(a1)
    4a28:	01261583          	lh	a1,18(a2)
    4a2c:	010f9f9b          	slliw	t6,t6,0x10
    4a30:	410fdf9b          	sraiw	t6,t6,0x10
    4a34:	0045d893          	srli	a7,a1,0x4
    4a38:	0018f893          	andi	a7,a7,1
    4a3c:	89bd                	andi	a1,a1,15
    4a3e:	0586                	slli	a1,a1,0x1
    4a40:	16089663          	bnez	a7,4bac <permute_vnx16hi+0x2c6>
    4a44:	95be                	add	a1,a1,a5
    4a46:	0005df03          	lhu	t5,0(a1)
    4a4a:	01461583          	lh	a1,20(a2)
    4a4e:	010f1f1b          	slliw	t5,t5,0x10
    4a52:	410f5f1b          	sraiw	t5,t5,0x10
    4a56:	0045d893          	srli	a7,a1,0x4
    4a5a:	0018f893          	andi	a7,a7,1
    4a5e:	89bd                	andi	a1,a1,15
    4a60:	0586                	slli	a1,a1,0x1
    4a62:	14089163          	bnez	a7,4ba4 <permute_vnx16hi+0x2be>
    4a66:	95be                	add	a1,a1,a5
    4a68:	0005de83          	lhu	t4,0(a1)
    4a6c:	01661583          	lh	a1,22(a2)
    4a70:	010e9e9b          	slliw	t4,t4,0x10
    4a74:	410ede9b          	sraiw	t4,t4,0x10
    4a78:	0045d893          	srli	a7,a1,0x4
    4a7c:	0018f893          	andi	a7,a7,1
    4a80:	89bd                	andi	a1,a1,15
    4a82:	0586                	slli	a1,a1,0x1
    4a84:	10089c63          	bnez	a7,4b9c <permute_vnx16hi+0x2b6>
    4a88:	95be                	add	a1,a1,a5
    4a8a:	0005de03          	lhu	t3,0(a1)
    4a8e:	01861583          	lh	a1,24(a2)
    4a92:	010e1e1b          	slliw	t3,t3,0x10
    4a96:	410e5e1b          	sraiw	t3,t3,0x10
    4a9a:	0045d893          	srli	a7,a1,0x4
    4a9e:	0018f893          	andi	a7,a7,1
    4aa2:	89bd                	andi	a1,a1,15
    4aa4:	0586                	slli	a1,a1,0x1
    4aa6:	0e089763          	bnez	a7,4b94 <permute_vnx16hi+0x2ae>
    4aaa:	95be                	add	a1,a1,a5
    4aac:	0005d303          	lhu	t1,0(a1)
    4ab0:	01a61583          	lh	a1,26(a2)
    4ab4:	0103131b          	slliw	t1,t1,0x10
    4ab8:	4103531b          	sraiw	t1,t1,0x10
    4abc:	0045d893          	srli	a7,a1,0x4
    4ac0:	0018f893          	andi	a7,a7,1
    4ac4:	89bd                	andi	a1,a1,15
    4ac6:	0586                	slli	a1,a1,0x1
    4ac8:	0c089263          	bnez	a7,4b8c <permute_vnx16hi+0x2a6>
    4acc:	95be                	add	a1,a1,a5
    4ace:	0005d883          	lhu	a7,0(a1)
    4ad2:	01c61583          	lh	a1,28(a2)
    4ad6:	0108989b          	slliw	a7,a7,0x10
    4ada:	4108d89b          	sraiw	a7,a7,0x10
    4ade:	0045db13          	srli	s6,a1,0x4
    4ae2:	001b7b13          	andi	s6,s6,1
    4ae6:	89bd                	andi	a1,a1,15
    4ae8:	0586                	slli	a1,a1,0x1
    4aea:	080b1d63          	bnez	s6,4b84 <permute_vnx16hi+0x29e>
    4aee:	95be                	add	a1,a1,a5
    4af0:	0005d583          	lhu	a1,0(a1)
    4af4:	01e61603          	lh	a2,30(a2)
    4af8:	0105959b          	slliw	a1,a1,0x10
    4afc:	4105d59b          	sraiw	a1,a1,0x10
    4b00:	00465b13          	srli	s6,a2,0x4
    4b04:	001b7b13          	andi	s6,s6,1
    4b08:	8a3d                	andi	a2,a2,15
    4b0a:	0606                	slli	a2,a2,0x1
    4b0c:	060b1863          	bnez	s6,4b7c <permute_vnx16hi+0x296>
    4b10:	97b2                	add	a5,a5,a2
    4b12:	0007d783          	lhu	a5,0(a5)
    4b16:	8111                	srli	a0,a0,0x4
    4b18:	0107979b          	slliw	a5,a5,0x10
    4b1c:	8905                	andi	a0,a0,1
    4b1e:	4107d79b          	sraiw	a5,a5,0x10
    4b22:	c501                	beqz	a0,4b2a <permute_vnx16hi+0x244>
    4b24:	9742                	add	a4,a4,a6
    4b26:	00075a83          	lhu	s5,0(a4)
    4b2a:	00869523          	sh	s0,10(a3)
    4b2e:	7466                	ld	s0,120(sp)
    4b30:	01569023          	sh	s5,0(a3)
    4b34:	01469123          	sh	s4,2(a3)
    4b38:	01369223          	sh	s3,4(a3)
    4b3c:	01269323          	sh	s2,6(a3)
    4b40:	00969423          	sh	s1,8(a3)
    4b44:	00769623          	sh	t2,12(a3)
    4b48:	00569723          	sh	t0,14(a3)
    4b4c:	01f69823          	sh	t6,16(a3)
    4b50:	01e69923          	sh	t5,18(a3)
    4b54:	01d69a23          	sh	t4,20(a3)
    4b58:	01c69b23          	sh	t3,22(a3)
    4b5c:	00669c23          	sh	t1,24(a3)
    4b60:	01169d23          	sh	a7,26(a3)
    4b64:	00b69e23          	sh	a1,28(a3)
    4b68:	00f69f23          	sh	a5,30(a3)
    4b6c:	74c6                	ld	s1,112(sp)
    4b6e:	7926                	ld	s2,104(sp)
    4b70:	7986                	ld	s3,96(sp)
    4b72:	6a66                	ld	s4,88(sp)
    4b74:	6ac6                	ld	s5,80(sp)
    4b76:	6b26                	ld	s6,72(sp)
    4b78:	6109                	addi	sp,sp,128
    4b7a:	8082                	ret
    4b7c:	963a                	add	a2,a2,a4
    4b7e:	00065783          	lhu	a5,0(a2)
    4b82:	bf51                	j	4b16 <permute_vnx16hi+0x230>
    4b84:	95ba                	add	a1,a1,a4
    4b86:	0005d583          	lhu	a1,0(a1)
    4b8a:	b7ad                	j	4af4 <permute_vnx16hi+0x20e>
    4b8c:	95ba                	add	a1,a1,a4
    4b8e:	0005d883          	lhu	a7,0(a1)
    4b92:	b781                	j	4ad2 <permute_vnx16hi+0x1ec>
    4b94:	95ba                	add	a1,a1,a4
    4b96:	0005d303          	lhu	t1,0(a1)
    4b9a:	bf19                	j	4ab0 <permute_vnx16hi+0x1ca>
    4b9c:	95ba                	add	a1,a1,a4
    4b9e:	0005de03          	lhu	t3,0(a1)
    4ba2:	b5f5                	j	4a8e <permute_vnx16hi+0x1a8>
    4ba4:	95ba                	add	a1,a1,a4
    4ba6:	0005de83          	lhu	t4,0(a1)
    4baa:	b5c9                	j	4a6c <permute_vnx16hi+0x186>
    4bac:	95ba                	add	a1,a1,a4
    4bae:	0005df03          	lhu	t5,0(a1)
    4bb2:	bd61                	j	4a4a <permute_vnx16hi+0x164>
    4bb4:	95ba                	add	a1,a1,a4
    4bb6:	0005df83          	lhu	t6,0(a1)
    4bba:	b5bd                	j	4a28 <permute_vnx16hi+0x142>
    4bbc:	95ba                	add	a1,a1,a4
    4bbe:	0005d283          	lhu	t0,0(a1)
    4bc2:	b591                	j	4a06 <permute_vnx16hi+0x120>
    4bc4:	95ba                	add	a1,a1,a4
    4bc6:	0005d383          	lhu	t2,0(a1)
    4bca:	bd29                	j	49e4 <permute_vnx16hi+0xfe>
    4bcc:	95ba                	add	a1,a1,a4
    4bce:	0005d403          	lhu	s0,0(a1)
    4bd2:	bbc5                	j	49c2 <permute_vnx16hi+0xdc>
    4bd4:	95ba                	add	a1,a1,a4
    4bd6:	0005d483          	lhu	s1,0(a1)
    4bda:	b3d9                	j	49a0 <permute_vnx16hi+0xba>
    4bdc:	95ba                	add	a1,a1,a4
    4bde:	0005d903          	lhu	s2,0(a1)
    4be2:	bb71                	j	497e <permute_vnx16hi+0x98>
    4be4:	95ba                	add	a1,a1,a4
    4be6:	0005d983          	lhu	s3,0(a1)
    4bea:	bb8d                	j	495c <permute_vnx16hi+0x76>
    4bec:	95ba                	add	a1,a1,a4
    4bee:	0005da03          	lhu	s4,0(a1)
    4bf2:	b3a1                	j	493a <permute_vnx16hi+0x54>

0000000000004bf4 <permute_vnx32hi>:
    4bf4:	cdb47057          	vsetivli	zero,8,e64,m8,ta,ma
    4bf8:	02057407          	vle64.v	v8,(a0)
    4bfc:	7129                	addi	sp,sp,-320
    4bfe:	fe22                	sd	s0,312(sp)
    4c00:	fa26                	sd	s1,304(sp)
    4c02:	f64a                	sd	s2,296(sp)
    4c04:	f24e                	sd	s3,288(sp)
    4c06:	ee52                	sd	s4,280(sp)
    4c08:	ea56                	sd	s5,272(sp)
    4c0a:	e65a                	sd	s6,264(sp)
    4c0c:	e25e                	sd	s7,256(sp)
    4c0e:	fde2                	sd	s8,248(sp)
    4c10:	f9e6                	sd	s9,240(sp)
    4c12:	f5ea                	sd	s10,232(sp)
    4c14:	f1ee                	sd	s11,224(sp)
    4c16:	109c                	addi	a5,sp,96
    4c18:	00061503          	lh	a0,0(a2)
    4c1c:	0207f427          	vse64.v	v8,(a5)
    4c20:	1118                	addi	a4,sp,160
    4c22:	01f57813          	andi	a6,a0,31
    4c26:	0806                	slli	a6,a6,0x1
    4c28:	0205f407          	vle64.v	v8,(a1)
    4c2c:	010785b3          	add	a1,a5,a6
    4c30:	00059583          	lh	a1,0(a1)
    4c34:	ecae                	sd	a1,88(sp)
    4c36:	00261583          	lh	a1,2(a2)
    4c3a:	02077427          	vse64.v	v8,(a4)
    4c3e:	0055d893          	srli	a7,a1,0x5
    4c42:	0018f893          	andi	a7,a7,1
    4c46:	89fd                	andi	a1,a1,31
    4c48:	0586                	slli	a1,a1,0x1
    4c4a:	4c089f63          	bnez	a7,5128 <permute_vnx32hi+0x534>
    4c4e:	95be                	add	a1,a1,a5
    4c50:	0005dd03          	lhu	s10,0(a1)
    4c54:	00461583          	lh	a1,4(a2)
    4c58:	010d1d1b          	slliw	s10,s10,0x10
    4c5c:	0055d893          	srli	a7,a1,0x5
    4c60:	0018f893          	andi	a7,a7,1
    4c64:	89fd                	andi	a1,a1,31
    4c66:	410d5d1b          	sraiw	s10,s10,0x10
    4c6a:	0586                	slli	a1,a1,0x1
    4c6c:	4c089f63          	bnez	a7,514a <permute_vnx32hi+0x556>
    4c70:	95be                	add	a1,a1,a5
    4c72:	0005dc83          	lhu	s9,0(a1)
    4c76:	00661583          	lh	a1,6(a2)
    4c7a:	010c9c9b          	slliw	s9,s9,0x10
    4c7e:	0055d893          	srli	a7,a1,0x5
    4c82:	0018f893          	andi	a7,a7,1
    4c86:	89fd                	andi	a1,a1,31
    4c88:	410cdc9b          	sraiw	s9,s9,0x10
    4c8c:	0586                	slli	a1,a1,0x1
    4c8e:	4c089f63          	bnez	a7,516c <permute_vnx32hi+0x578>
    4c92:	95be                	add	a1,a1,a5
    4c94:	0005dc03          	lhu	s8,0(a1)
    4c98:	00861583          	lh	a1,8(a2)
    4c9c:	010c1c1b          	slliw	s8,s8,0x10
    4ca0:	0055d893          	srli	a7,a1,0x5
    4ca4:	0018f893          	andi	a7,a7,1
    4ca8:	89fd                	andi	a1,a1,31
    4caa:	410c5c1b          	sraiw	s8,s8,0x10
    4cae:	0586                	slli	a1,a1,0x1
    4cb0:	4c089f63          	bnez	a7,518e <permute_vnx32hi+0x59a>
    4cb4:	95be                	add	a1,a1,a5
    4cb6:	0005db83          	lhu	s7,0(a1)
    4cba:	00a61583          	lh	a1,10(a2)
    4cbe:	010b9b9b          	slliw	s7,s7,0x10
    4cc2:	0055d893          	srli	a7,a1,0x5
    4cc6:	0018f893          	andi	a7,a7,1
    4cca:	89fd                	andi	a1,a1,31
    4ccc:	410bdb9b          	sraiw	s7,s7,0x10
    4cd0:	0586                	slli	a1,a1,0x1
    4cd2:	4c089f63          	bnez	a7,51b0 <permute_vnx32hi+0x5bc>
    4cd6:	95be                	add	a1,a1,a5
    4cd8:	0005db03          	lhu	s6,0(a1)
    4cdc:	00c61583          	lh	a1,12(a2)
    4ce0:	010b1b1b          	slliw	s6,s6,0x10
    4ce4:	0055d893          	srli	a7,a1,0x5
    4ce8:	0018f893          	andi	a7,a7,1
    4cec:	89fd                	andi	a1,a1,31
    4cee:	410b5b1b          	sraiw	s6,s6,0x10
    4cf2:	0586                	slli	a1,a1,0x1
    4cf4:	4c089f63          	bnez	a7,51d2 <permute_vnx32hi+0x5de>
    4cf8:	95be                	add	a1,a1,a5
    4cfa:	0005da83          	lhu	s5,0(a1)
    4cfe:	00e61583          	lh	a1,14(a2)
    4d02:	010a9a9b          	slliw	s5,s5,0x10
    4d06:	0055d893          	srli	a7,a1,0x5
    4d0a:	0018f893          	andi	a7,a7,1
    4d0e:	89fd                	andi	a1,a1,31
    4d10:	410ada9b          	sraiw	s5,s5,0x10
    4d14:	0586                	slli	a1,a1,0x1
    4d16:	4c089f63          	bnez	a7,51f4 <permute_vnx32hi+0x600>
    4d1a:	95be                	add	a1,a1,a5
    4d1c:	0005da03          	lhu	s4,0(a1)
    4d20:	01061583          	lh	a1,16(a2)
    4d24:	010a1a1b          	slliw	s4,s4,0x10
    4d28:	0055d893          	srli	a7,a1,0x5
    4d2c:	0018f893          	andi	a7,a7,1
    4d30:	89fd                	andi	a1,a1,31
    4d32:	410a5a1b          	sraiw	s4,s4,0x10
    4d36:	0586                	slli	a1,a1,0x1
    4d38:	4c089f63          	bnez	a7,5216 <permute_vnx32hi+0x622>
    4d3c:	95be                	add	a1,a1,a5
    4d3e:	0005d983          	lhu	s3,0(a1)
    4d42:	01261583          	lh	a1,18(a2)
    4d46:	0109999b          	slliw	s3,s3,0x10
    4d4a:	0055d893          	srli	a7,a1,0x5
    4d4e:	0018f893          	andi	a7,a7,1
    4d52:	89fd                	andi	a1,a1,31
    4d54:	4109d99b          	sraiw	s3,s3,0x10
    4d58:	0586                	slli	a1,a1,0x1
    4d5a:	4c089f63          	bnez	a7,5238 <permute_vnx32hi+0x644>
    4d5e:	95be                	add	a1,a1,a5
    4d60:	0005d903          	lhu	s2,0(a1)
    4d64:	01461583          	lh	a1,20(a2)
    4d68:	0109191b          	slliw	s2,s2,0x10
    4d6c:	0055d893          	srli	a7,a1,0x5
    4d70:	0018f893          	andi	a7,a7,1
    4d74:	89fd                	andi	a1,a1,31
    4d76:	4109591b          	sraiw	s2,s2,0x10
    4d7a:	0586                	slli	a1,a1,0x1
    4d7c:	4c089f63          	bnez	a7,525a <permute_vnx32hi+0x666>
    4d80:	95be                	add	a1,a1,a5
    4d82:	0005d483          	lhu	s1,0(a1)
    4d86:	01661583          	lh	a1,22(a2)
    4d8a:	0104949b          	slliw	s1,s1,0x10
    4d8e:	0055d893          	srli	a7,a1,0x5
    4d92:	0018f893          	andi	a7,a7,1
    4d96:	89fd                	andi	a1,a1,31
    4d98:	4104d49b          	sraiw	s1,s1,0x10
    4d9c:	0586                	slli	a1,a1,0x1
    4d9e:	4c089f63          	bnez	a7,527c <permute_vnx32hi+0x688>
    4da2:	95be                	add	a1,a1,a5
    4da4:	0005d883          	lhu	a7,0(a1)
    4da8:	01861583          	lh	a1,24(a2)
    4dac:	0108941b          	slliw	s0,a7,0x10
    4db0:	4104541b          	sraiw	s0,s0,0x10
    4db4:	0055d893          	srli	a7,a1,0x5
    4db8:	e422                	sd	s0,8(sp)
    4dba:	89fd                	andi	a1,a1,31
    4dbc:	0018f893          	andi	a7,a7,1
    4dc0:	0586                	slli	a1,a1,0x1
    4dc2:	56089163          	bnez	a7,5324 <permute_vnx32hi+0x730>
    4dc6:	95be                	add	a1,a1,a5
    4dc8:	0005d883          	lhu	a7,0(a1)
    4dcc:	01a61583          	lh	a1,26(a2)
    4dd0:	0108941b          	slliw	s0,a7,0x10
    4dd4:	4104541b          	sraiw	s0,s0,0x10
    4dd8:	0055d893          	srli	a7,a1,0x5
    4ddc:	e822                	sd	s0,16(sp)
    4dde:	89fd                	andi	a1,a1,31
    4de0:	0018f893          	andi	a7,a7,1
    4de4:	0586                	slli	a1,a1,0x1
    4de6:	52089b63          	bnez	a7,531c <permute_vnx32hi+0x728>
    4dea:	95be                	add	a1,a1,a5
    4dec:	0005d883          	lhu	a7,0(a1)
    4df0:	01c61583          	lh	a1,28(a2)
    4df4:	0108941b          	slliw	s0,a7,0x10
    4df8:	4104541b          	sraiw	s0,s0,0x10
    4dfc:	0055d893          	srli	a7,a1,0x5
    4e00:	ec22                	sd	s0,24(sp)
    4e02:	89fd                	andi	a1,a1,31
    4e04:	0018f893          	andi	a7,a7,1
    4e08:	0586                	slli	a1,a1,0x1
    4e0a:	50089563          	bnez	a7,5314 <permute_vnx32hi+0x720>
    4e0e:	95be                	add	a1,a1,a5
    4e10:	0005d883          	lhu	a7,0(a1)
    4e14:	01e61583          	lh	a1,30(a2)
    4e18:	0108941b          	slliw	s0,a7,0x10
    4e1c:	4104541b          	sraiw	s0,s0,0x10
    4e20:	0055d893          	srli	a7,a1,0x5
    4e24:	f022                	sd	s0,32(sp)
    4e26:	89fd                	andi	a1,a1,31
    4e28:	0018f893          	andi	a7,a7,1
    4e2c:	0586                	slli	a1,a1,0x1
    4e2e:	4c089f63          	bnez	a7,530c <permute_vnx32hi+0x718>
    4e32:	95be                	add	a1,a1,a5
    4e34:	0005d883          	lhu	a7,0(a1)
    4e38:	02061583          	lh	a1,32(a2)
    4e3c:	0108941b          	slliw	s0,a7,0x10
    4e40:	4104541b          	sraiw	s0,s0,0x10
    4e44:	0055d893          	srli	a7,a1,0x5
    4e48:	f422                	sd	s0,40(sp)
    4e4a:	89fd                	andi	a1,a1,31
    4e4c:	0018f893          	andi	a7,a7,1
    4e50:	0586                	slli	a1,a1,0x1
    4e52:	4a089963          	bnez	a7,5304 <permute_vnx32hi+0x710>
    4e56:	95be                	add	a1,a1,a5
    4e58:	0005d883          	lhu	a7,0(a1)
    4e5c:	02261583          	lh	a1,34(a2)
    4e60:	0108941b          	slliw	s0,a7,0x10
    4e64:	4104541b          	sraiw	s0,s0,0x10
    4e68:	0055d893          	srli	a7,a1,0x5
    4e6c:	f822                	sd	s0,48(sp)
    4e6e:	89fd                	andi	a1,a1,31
    4e70:	0018f893          	andi	a7,a7,1
    4e74:	0586                	slli	a1,a1,0x1
    4e76:	48089363          	bnez	a7,52fc <permute_vnx32hi+0x708>
    4e7a:	95be                	add	a1,a1,a5
    4e7c:	0005d883          	lhu	a7,0(a1)
    4e80:	02461583          	lh	a1,36(a2)
    4e84:	0108941b          	slliw	s0,a7,0x10
    4e88:	4104541b          	sraiw	s0,s0,0x10
    4e8c:	0055d893          	srli	a7,a1,0x5
    4e90:	fc22                	sd	s0,56(sp)
    4e92:	89fd                	andi	a1,a1,31
    4e94:	0018f893          	andi	a7,a7,1
    4e98:	0586                	slli	a1,a1,0x1
    4e9a:	44089d63          	bnez	a7,52f4 <permute_vnx32hi+0x700>
    4e9e:	95be                	add	a1,a1,a5
    4ea0:	0005d883          	lhu	a7,0(a1)
    4ea4:	02661583          	lh	a1,38(a2)
    4ea8:	0108941b          	slliw	s0,a7,0x10
    4eac:	4104541b          	sraiw	s0,s0,0x10
    4eb0:	0055d893          	srli	a7,a1,0x5
    4eb4:	e0a2                	sd	s0,64(sp)
    4eb6:	89fd                	andi	a1,a1,31
    4eb8:	0018f893          	andi	a7,a7,1
    4ebc:	0586                	slli	a1,a1,0x1
    4ebe:	42089763          	bnez	a7,52ec <permute_vnx32hi+0x6f8>
    4ec2:	95be                	add	a1,a1,a5
    4ec4:	0005d883          	lhu	a7,0(a1)
    4ec8:	02861583          	lh	a1,40(a2)
    4ecc:	0108941b          	slliw	s0,a7,0x10
    4ed0:	4104541b          	sraiw	s0,s0,0x10
    4ed4:	0055d893          	srli	a7,a1,0x5
    4ed8:	e4a2                	sd	s0,72(sp)
    4eda:	89fd                	andi	a1,a1,31
    4edc:	0018f893          	andi	a7,a7,1
    4ee0:	0586                	slli	a1,a1,0x1
    4ee2:	40089163          	bnez	a7,52e4 <permute_vnx32hi+0x6f0>
    4ee6:	95be                	add	a1,a1,a5
    4ee8:	0005d883          	lhu	a7,0(a1)
    4eec:	02a61583          	lh	a1,42(a2)
    4ef0:	0108941b          	slliw	s0,a7,0x10
    4ef4:	4104541b          	sraiw	s0,s0,0x10
    4ef8:	0055d893          	srli	a7,a1,0x5
    4efc:	e8a2                	sd	s0,80(sp)
    4efe:	89fd                	andi	a1,a1,31
    4f00:	0018f893          	andi	a7,a7,1
    4f04:	0586                	slli	a1,a1,0x1
    4f06:	3c089b63          	bnez	a7,52dc <permute_vnx32hi+0x6e8>
    4f0a:	95be                	add	a1,a1,a5
    4f0c:	0005d403          	lhu	s0,0(a1)
    4f10:	02c61583          	lh	a1,44(a2)
    4f14:	0104141b          	slliw	s0,s0,0x10
    4f18:	4104541b          	sraiw	s0,s0,0x10
    4f1c:	0055d893          	srli	a7,a1,0x5
    4f20:	0018f893          	andi	a7,a7,1
    4f24:	89fd                	andi	a1,a1,31
    4f26:	0586                	slli	a1,a1,0x1
    4f28:	3a089663          	bnez	a7,52d4 <permute_vnx32hi+0x6e0>
    4f2c:	95be                	add	a1,a1,a5
    4f2e:	0005d383          	lhu	t2,0(a1)
    4f32:	02e61583          	lh	a1,46(a2)
    4f36:	0103939b          	slliw	t2,t2,0x10
    4f3a:	4103d39b          	sraiw	t2,t2,0x10
    4f3e:	0055d893          	srli	a7,a1,0x5
    4f42:	0018f893          	andi	a7,a7,1
    4f46:	89fd                	andi	a1,a1,31
    4f48:	0586                	slli	a1,a1,0x1
    4f4a:	38089163          	bnez	a7,52cc <permute_vnx32hi+0x6d8>
    4f4e:	95be                	add	a1,a1,a5
    4f50:	0005d283          	lhu	t0,0(a1)
    4f54:	03061583          	lh	a1,48(a2)
    4f58:	0102929b          	slliw	t0,t0,0x10
    4f5c:	4102d29b          	sraiw	t0,t0,0x10
    4f60:	0055d893          	srli	a7,a1,0x5
    4f64:	0018f893          	andi	a7,a7,1
    4f68:	89fd                	andi	a1,a1,31
    4f6a:	0586                	slli	a1,a1,0x1
    4f6c:	34089c63          	bnez	a7,52c4 <permute_vnx32hi+0x6d0>
    4f70:	95be                	add	a1,a1,a5
    4f72:	0005df83          	lhu	t6,0(a1)
    4f76:	03261583          	lh	a1,50(a2)
    4f7a:	010f9f9b          	slliw	t6,t6,0x10
    4f7e:	410fdf9b          	sraiw	t6,t6,0x10
    4f82:	0055d893          	srli	a7,a1,0x5
    4f86:	0018f893          	andi	a7,a7,1
    4f8a:	89fd                	andi	a1,a1,31
    4f8c:	0586                	slli	a1,a1,0x1
    4f8e:	32089763          	bnez	a7,52bc <permute_vnx32hi+0x6c8>
    4f92:	95be                	add	a1,a1,a5
    4f94:	0005df03          	lhu	t5,0(a1)
    4f98:	03461583          	lh	a1,52(a2)
    4f9c:	010f1f1b          	slliw	t5,t5,0x10
    4fa0:	410f5f1b          	sraiw	t5,t5,0x10
    4fa4:	0055d893          	srli	a7,a1,0x5
    4fa8:	0018f893          	andi	a7,a7,1
    4fac:	89fd                	andi	a1,a1,31
    4fae:	0586                	slli	a1,a1,0x1
    4fb0:	30089263          	bnez	a7,52b4 <permute_vnx32hi+0x6c0>
    4fb4:	95be                	add	a1,a1,a5
    4fb6:	0005de83          	lhu	t4,0(a1)
    4fba:	03661583          	lh	a1,54(a2)
    4fbe:	010e9e9b          	slliw	t4,t4,0x10
    4fc2:	410ede9b          	sraiw	t4,t4,0x10
    4fc6:	0055d893          	srli	a7,a1,0x5
    4fca:	0018f893          	andi	a7,a7,1
    4fce:	89fd                	andi	a1,a1,31
    4fd0:	0586                	slli	a1,a1,0x1
    4fd2:	2c089d63          	bnez	a7,52ac <permute_vnx32hi+0x6b8>
    4fd6:	95be                	add	a1,a1,a5
    4fd8:	0005de03          	lhu	t3,0(a1)
    4fdc:	03861583          	lh	a1,56(a2)
    4fe0:	010e1e1b          	slliw	t3,t3,0x10
    4fe4:	410e5e1b          	sraiw	t3,t3,0x10
    4fe8:	0055d893          	srli	a7,a1,0x5
    4fec:	0018f893          	andi	a7,a7,1
    4ff0:	89fd                	andi	a1,a1,31
    4ff2:	0586                	slli	a1,a1,0x1
    4ff4:	2a089863          	bnez	a7,52a4 <permute_vnx32hi+0x6b0>
    4ff8:	95be                	add	a1,a1,a5
    4ffa:	0005d303          	lhu	t1,0(a1)
    4ffe:	03a61583          	lh	a1,58(a2)
    5002:	0103131b          	slliw	t1,t1,0x10
    5006:	4103531b          	sraiw	t1,t1,0x10
    500a:	0055d893          	srli	a7,a1,0x5
    500e:	0018f893          	andi	a7,a7,1
    5012:	89fd                	andi	a1,a1,31
    5014:	0586                	slli	a1,a1,0x1
    5016:	28089363          	bnez	a7,529c <permute_vnx32hi+0x6a8>
    501a:	95be                	add	a1,a1,a5
    501c:	0005d883          	lhu	a7,0(a1)
    5020:	03c61583          	lh	a1,60(a2)
    5024:	0108989b          	slliw	a7,a7,0x10
    5028:	4108d89b          	sraiw	a7,a7,0x10
    502c:	0055dd93          	srli	s11,a1,0x5
    5030:	001dfd93          	andi	s11,s11,1
    5034:	89fd                	andi	a1,a1,31
    5036:	0586                	slli	a1,a1,0x1
    5038:	240d9e63          	bnez	s11,5294 <permute_vnx32hi+0x6a0>
    503c:	95be                	add	a1,a1,a5
    503e:	0005d583          	lhu	a1,0(a1)
    5042:	03e61603          	lh	a2,62(a2)
    5046:	0105959b          	slliw	a1,a1,0x10
    504a:	4105d59b          	sraiw	a1,a1,0x10
    504e:	00565d93          	srli	s11,a2,0x5
    5052:	001dfd93          	andi	s11,s11,1
    5056:	8a7d                	andi	a2,a2,31
    5058:	0606                	slli	a2,a2,0x1
    505a:	220d9963          	bnez	s11,528c <permute_vnx32hi+0x698>
    505e:	97b2                	add	a5,a5,a2
    5060:	0007d783          	lhu	a5,0(a5)
    5064:	8115                	srli	a0,a0,0x5
    5066:	0107979b          	slliw	a5,a5,0x10
    506a:	8905                	andi	a0,a0,1
    506c:	4107d79b          	sraiw	a5,a5,0x10
    5070:	20051a63          	bnez	a0,5284 <permute_vnx32hi+0x690>
    5074:	05815703          	lhu	a4,88(sp)
    5078:	00e69023          	sh	a4,0(a3)
    507c:	6722                	ld	a4,8(sp)
    507e:	01a69123          	sh	s10,2(a3)
    5082:	01969223          	sh	s9,4(a3)
    5086:	00e69b23          	sh	a4,22(a3)
    508a:	6742                	ld	a4,16(sp)
    508c:	01869323          	sh	s8,6(a3)
    5090:	01769423          	sh	s7,8(a3)
    5094:	00e69c23          	sh	a4,24(a3)
    5098:	6762                	ld	a4,24(sp)
    509a:	01669523          	sh	s6,10(a3)
    509e:	01569623          	sh	s5,12(a3)
    50a2:	00e69d23          	sh	a4,26(a3)
    50a6:	7702                	ld	a4,32(sp)
    50a8:	01469723          	sh	s4,14(a3)
    50ac:	01369823          	sh	s3,16(a3)
    50b0:	00e69e23          	sh	a4,28(a3)
    50b4:	7722                	ld	a4,40(sp)
    50b6:	01269923          	sh	s2,18(a3)
    50ba:	00969a23          	sh	s1,20(a3)
    50be:	00e69f23          	sh	a4,30(a3)
    50c2:	7742                	ld	a4,48(sp)
    50c4:	02869523          	sh	s0,42(a3)
    50c8:	02e69023          	sh	a4,32(a3)
    50cc:	7762                	ld	a4,56(sp)
    50ce:	02e69123          	sh	a4,34(a3)
    50d2:	6706                	ld	a4,64(sp)
    50d4:	02e69223          	sh	a4,36(a3)
    50d8:	6726                	ld	a4,72(sp)
    50da:	02e69323          	sh	a4,38(a3)
    50de:	6746                	ld	a4,80(sp)
    50e0:	02e69423          	sh	a4,40(a3)
    50e4:	02769623          	sh	t2,44(a3)
    50e8:	7472                	ld	s0,312(sp)
    50ea:	02569723          	sh	t0,46(a3)
    50ee:	03f69823          	sh	t6,48(a3)
    50f2:	03e69923          	sh	t5,50(a3)
    50f6:	03d69a23          	sh	t4,52(a3)
    50fa:	03c69b23          	sh	t3,54(a3)
    50fe:	02669c23          	sh	t1,56(a3)
    5102:	03169d23          	sh	a7,58(a3)
    5106:	02b69e23          	sh	a1,60(a3)
    510a:	02f69f23          	sh	a5,62(a3)
    510e:	74d2                	ld	s1,304(sp)
    5110:	7932                	ld	s2,296(sp)
    5112:	7992                	ld	s3,288(sp)
    5114:	6a72                	ld	s4,280(sp)
    5116:	6ad2                	ld	s5,272(sp)
    5118:	6b32                	ld	s6,264(sp)
    511a:	6b92                	ld	s7,256(sp)
    511c:	7c6e                	ld	s8,248(sp)
    511e:	7cce                	ld	s9,240(sp)
    5120:	7d2e                	ld	s10,232(sp)
    5122:	7d8e                	ld	s11,224(sp)
    5124:	6131                	addi	sp,sp,320
    5126:	8082                	ret
    5128:	95ba                	add	a1,a1,a4
    512a:	0005dd03          	lhu	s10,0(a1)
    512e:	00461583          	lh	a1,4(a2)
    5132:	010d1d1b          	slliw	s10,s10,0x10
    5136:	0055d893          	srli	a7,a1,0x5
    513a:	0018f893          	andi	a7,a7,1
    513e:	89fd                	andi	a1,a1,31
    5140:	410d5d1b          	sraiw	s10,s10,0x10
    5144:	0586                	slli	a1,a1,0x1
    5146:	b20885e3          	beqz	a7,4c70 <permute_vnx32hi+0x7c>
    514a:	95ba                	add	a1,a1,a4
    514c:	0005dc83          	lhu	s9,0(a1)
    5150:	00661583          	lh	a1,6(a2)
    5154:	010c9c9b          	slliw	s9,s9,0x10
    5158:	0055d893          	srli	a7,a1,0x5
    515c:	0018f893          	andi	a7,a7,1
    5160:	89fd                	andi	a1,a1,31
    5162:	410cdc9b          	sraiw	s9,s9,0x10
    5166:	0586                	slli	a1,a1,0x1
    5168:	b20885e3          	beqz	a7,4c92 <permute_vnx32hi+0x9e>
    516c:	95ba                	add	a1,a1,a4
    516e:	0005dc03          	lhu	s8,0(a1)
    5172:	00861583          	lh	a1,8(a2)
    5176:	010c1c1b          	slliw	s8,s8,0x10
    517a:	0055d893          	srli	a7,a1,0x5
    517e:	0018f893          	andi	a7,a7,1
    5182:	89fd                	andi	a1,a1,31
    5184:	410c5c1b          	sraiw	s8,s8,0x10
    5188:	0586                	slli	a1,a1,0x1
    518a:	b20885e3          	beqz	a7,4cb4 <permute_vnx32hi+0xc0>
    518e:	95ba                	add	a1,a1,a4
    5190:	0005db83          	lhu	s7,0(a1)
    5194:	00a61583          	lh	a1,10(a2)
    5198:	010b9b9b          	slliw	s7,s7,0x10
    519c:	0055d893          	srli	a7,a1,0x5
    51a0:	0018f893          	andi	a7,a7,1
    51a4:	89fd                	andi	a1,a1,31
    51a6:	410bdb9b          	sraiw	s7,s7,0x10
    51aa:	0586                	slli	a1,a1,0x1
    51ac:	b20885e3          	beqz	a7,4cd6 <permute_vnx32hi+0xe2>
    51b0:	95ba                	add	a1,a1,a4
    51b2:	0005db03          	lhu	s6,0(a1)
    51b6:	00c61583          	lh	a1,12(a2)
    51ba:	010b1b1b          	slliw	s6,s6,0x10
    51be:	0055d893          	srli	a7,a1,0x5
    51c2:	0018f893          	andi	a7,a7,1
    51c6:	89fd                	andi	a1,a1,31
    51c8:	410b5b1b          	sraiw	s6,s6,0x10
    51cc:	0586                	slli	a1,a1,0x1
    51ce:	b20885e3          	beqz	a7,4cf8 <permute_vnx32hi+0x104>
    51d2:	95ba                	add	a1,a1,a4
    51d4:	0005da83          	lhu	s5,0(a1)
    51d8:	00e61583          	lh	a1,14(a2)
    51dc:	010a9a9b          	slliw	s5,s5,0x10
    51e0:	0055d893          	srli	a7,a1,0x5
    51e4:	0018f893          	andi	a7,a7,1
    51e8:	89fd                	andi	a1,a1,31
    51ea:	410ada9b          	sraiw	s5,s5,0x10
    51ee:	0586                	slli	a1,a1,0x1
    51f0:	b20885e3          	beqz	a7,4d1a <permute_vnx32hi+0x126>
    51f4:	95ba                	add	a1,a1,a4
    51f6:	0005da03          	lhu	s4,0(a1)
    51fa:	01061583          	lh	a1,16(a2)
    51fe:	010a1a1b          	slliw	s4,s4,0x10
    5202:	0055d893          	srli	a7,a1,0x5
    5206:	0018f893          	andi	a7,a7,1
    520a:	89fd                	andi	a1,a1,31
    520c:	410a5a1b          	sraiw	s4,s4,0x10
    5210:	0586                	slli	a1,a1,0x1
    5212:	b20885e3          	beqz	a7,4d3c <permute_vnx32hi+0x148>
    5216:	95ba                	add	a1,a1,a4
    5218:	0005d983          	lhu	s3,0(a1)
    521c:	01261583          	lh	a1,18(a2)
    5220:	0109999b          	slliw	s3,s3,0x10
    5224:	0055d893          	srli	a7,a1,0x5
    5228:	0018f893          	andi	a7,a7,1
    522c:	89fd                	andi	a1,a1,31
    522e:	4109d99b          	sraiw	s3,s3,0x10
    5232:	0586                	slli	a1,a1,0x1
    5234:	b20885e3          	beqz	a7,4d5e <permute_vnx32hi+0x16a>
    5238:	95ba                	add	a1,a1,a4
    523a:	0005d903          	lhu	s2,0(a1)
    523e:	01461583          	lh	a1,20(a2)
    5242:	0109191b          	slliw	s2,s2,0x10
    5246:	0055d893          	srli	a7,a1,0x5
    524a:	0018f893          	andi	a7,a7,1
    524e:	89fd                	andi	a1,a1,31
    5250:	4109591b          	sraiw	s2,s2,0x10
    5254:	0586                	slli	a1,a1,0x1
    5256:	b20885e3          	beqz	a7,4d80 <permute_vnx32hi+0x18c>
    525a:	95ba                	add	a1,a1,a4
    525c:	0005d483          	lhu	s1,0(a1)
